ARM GAS  C:\Users\humon\AppData\Local\Temp\cc52GuuO.s 			page 1


   1              		.cpu cortex-m0
   2              		.fpu softvfp
   3              		.eabi_attribute 20, 1
   4              		.eabi_attribute 21, 1
   5              		.eabi_attribute 23, 3
   6              		.eabi_attribute 24, 1
   7              		.eabi_attribute 25, 1
   8              		.eabi_attribute 26, 1
   9              		.eabi_attribute 30, 6
  10              		.eabi_attribute 34, 0
  11              		.eabi_attribute 18, 4
  12              		.code	16
  13              		.file	"I2C.c"
  14              		.text
  15              	.Ltext0:
  16              		.cfi_sections	.debug_frame
  17              		.section	.text.I2C_write,"ax",%progbits
  18              		.align	2
  19              		.global	I2C_write
  20              		.code	16
  21              		.thumb_func
  22              		.type	I2C_write, %function
  23              	I2C_write:
  24              	.LFB37:
  25              		.file 1 ".\\I2C.c"
   1:.\I2C.c       **** /* ========================================
   2:.\I2C.c       ****  *
   3:.\I2C.c       ****  * Copyright Humon, 2016
   4:.\I2C.c       ****  * All Rights Reserved
   5:.\I2C.c       ****  * UNPUBLISHED, LICENSED SOFTWARE.
   6:.\I2C.c       ****  *
   7:.\I2C.c       ****  * CONFIDENTIAL AND PROPRIETARY INFORMATION
   8:.\I2C.c       ****  * WHICH IS THE PROPERTY OF Humon.
   9:.\I2C.c       ****  *
  10:.\I2C.c       ****  * Author: Dharmesh Tarapore
  11:.\I2C.c       ****  * Purpose: Serves as an abstraction layer for all
  12:.\I2C.c       ****  *          I2C operations.
  13:.\I2C.c       ****  * ========================================
  14:.\I2C.c       **** */
  15:.\I2C.c       **** 
  16:.\I2C.c       **** #include <I2C.h>
  17:.\I2C.c       **** 
  18:.\I2C.c       **** bool I2C_write(uint32 slave_address, uint8 cmd[], uint32 buffer_size) {
  26              		.loc 1 18 0
  27              		.cfi_startproc
  28 0000 80B5     		push	{r7, lr}
  29              		.cfi_def_cfa_offset 8
  30              		.cfi_offset 7, -8
  31              		.cfi_offset 14, -4
  32 0002 84B0     		sub	sp, sp, #16
  33              		.cfi_def_cfa_offset 24
  34 0004 00AF     		add	r7, sp, #0
  35              		.cfi_def_cfa_register 7
  36 0006 F860     		str	r0, [r7, #12]
  37 0008 B960     		str	r1, [r7, #8]
  38 000a 7A60     		str	r2, [r7, #4]
  19:.\I2C.c       ****     // Clear Master Status
ARM GAS  C:\Users\humon\AppData\Local\Temp\cc52GuuO.s 			page 2


  20:.\I2C.c       ****     I2CM_I2CMasterClearStatus(); 
  39              		.loc 1 20 0
  40 000c FFF7FEFF 		bl	I2CM_I2CMasterClearStatus
  21:.\I2C.c       ****     I2CM_I2CMasterWriteBuf(slave_address, cmd, buffer_size, I2CM_I2C_MODE_COMPLETE_XFER);
  41              		.loc 1 21 0
  42 0010 F968     		ldr	r1, [r7, #12]
  43 0012 BA68     		ldr	r2, [r7, #8]
  44 0014 7B68     		ldr	r3, [r7, #4]
  45 0016 081C     		mov	r0, r1
  46 0018 111C     		mov	r1, r2
  47 001a 1A1C     		mov	r2, r3
  48 001c 0023     		mov	r3, #0
  49 001e FFF7FEFF 		bl	I2CM_I2CMasterWriteBuf
  22:.\I2C.c       ****     
  23:.\I2C.c       ****     // Wait until master completes write transfer
  24:.\I2C.c       ****     while (0u == (I2CM_I2CMasterStatus() & I2CM_I2C_MSTAT_WR_CMPLT)) {
  50              		.loc 1 24 0
  51 0022 C046     		mov	r8, r8
  52              	.L2:
  53              		.loc 1 24 0 is_stmt 0 discriminator 1
  54 0024 FFF7FEFF 		bl	I2CM_I2CMasterStatus
  55 0028 021C     		mov	r2, r0
  56 002a 0223     		mov	r3, #2
  57 002c 1340     		and	r3, r2
  58 002e F9D0     		beq	.L2
  25:.\I2C.c       ****     }
  26:.\I2C.c       ****     
  27:.\I2C.c       ****      // If we observe no status errors 
  28:.\I2C.c       ****     if (0u == (I2CM_I2C_MSTAT_ERR_XFER & I2CM_I2CMasterStatus()))  //no status errors
  59              		.loc 1 28 0 is_stmt 1
  60 0030 FFF7FEFF 		bl	I2CM_I2CMasterStatus
  61 0034 021C     		mov	r2, r0
  62 0036 8023     		mov	r3, #128
  63 0038 9B00     		lsl	r3, r3, #2
  64 003a 1340     		and	r3, r2
  65 003c 07D1     		bne	.L3
  29:.\I2C.c       ****     {
  30:.\I2C.c       ****         /* Check if all bytes was written */
  31:.\I2C.c       ****         if (I2CM_I2CMasterGetWriteBufSize() == buffer_size)
  66              		.loc 1 31 0
  67 003e FFF7FEFF 		bl	I2CM_I2CMasterGetWriteBufSize
  68 0042 021E     		sub	r2, r0, #0
  69 0044 7B68     		ldr	r3, [r7, #4]
  70 0046 9A42     		cmp	r2, r3
  71 0048 01D1     		bne	.L3
  32:.\I2C.c       ****         {
  33:.\I2C.c       ****             return true;
  72              		.loc 1 33 0
  73 004a 0123     		mov	r3, #1
  74 004c 00E0     		b	.L4
  75              	.L3:
  34:.\I2C.c       ****         }
  35:.\I2C.c       ****     }
  36:.\I2C.c       ****     // If all the bytes were not written, we assume the write failed
  37:.\I2C.c       ****     return false;
  76              		.loc 1 37 0
  77 004e 0023     		mov	r3, #0
ARM GAS  C:\Users\humon\AppData\Local\Temp\cc52GuuO.s 			page 3


  78              	.L4:
  38:.\I2C.c       **** }
  79              		.loc 1 38 0
  80 0050 181C     		mov	r0, r3
  81 0052 BD46     		mov	sp, r7
  82 0054 04B0     		add	sp, sp, #16
  83              		@ sp needed
  84 0056 80BD     		pop	{r7, pc}
  85              		.cfi_endproc
  86              	.LFE37:
  87              		.size	I2C_write, .-I2C_write
  88              		.text
  89              	.Letext0:
  90              		.file 2 "Generated_Source\\PSoC4/cytypes.h"
  91              		.file 3 "./I2C.h"