ARM GAS  C:\Users\humon\AppData\Local\Temp\ccsYG7Ua.s 			page 1


   1              		.cpu cortex-m0
   2              		.fpu softvfp
   3              		.eabi_attribute 20, 1
   4              		.eabi_attribute 21, 1
   5              		.eabi_attribute 23, 3
   6              		.eabi_attribute 24, 1
   7              		.eabi_attribute 25, 1
   8              		.eabi_attribute 26, 1
   9              		.eabi_attribute 30, 6
  10              		.eabi_attribute 34, 0
  11              		.eabi_attribute 18, 4
  12              		.code	16
  13              		.file	"I2CM.c"
  14              		.text
  15              	.Ltext0:
  16              		.cfi_sections	.debug_frame
  17              		.global	I2CM_initVar
  18              		.bss
  19              		.type	I2CM_initVar, %object
  20              		.size	I2CM_initVar, 1
  21              	I2CM_initVar:
  22 0000 00       		.space	1
  23              		.global	I2CM_customIntrHandler
  24 0001 000000   		.align	2
  25              		.type	I2CM_customIntrHandler, %object
  26              		.size	I2CM_customIntrHandler, 4
  27              	I2CM_customIntrHandler:
  28 0004 00000000 		.space	4
  29              		.section	.text.I2CM_Init,"ax",%progbits
  30              		.align	2
  31              		.global	I2CM_Init
  32              		.code	16
  33              		.thumb_func
  34              		.type	I2CM_Init, %function
  35              	I2CM_Init:
  36              	.LFB2:
  37              		.file 1 ".\\Generated_Source\\PSoC4\\I2CM.c"
   1:.\Generated_Source\PSoC4/I2CM.c **** /***************************************************************************//**
   2:.\Generated_Source\PSoC4/I2CM.c **** * \file I2CM.c
   3:.\Generated_Source\PSoC4/I2CM.c **** * \version 3.20
   4:.\Generated_Source\PSoC4/I2CM.c **** *
   5:.\Generated_Source\PSoC4/I2CM.c **** * \brief
   6:.\Generated_Source\PSoC4/I2CM.c **** *  This file provides the source code to the API for the SCB Component.
   7:.\Generated_Source\PSoC4/I2CM.c **** *
   8:.\Generated_Source\PSoC4/I2CM.c **** * Note:
   9:.\Generated_Source\PSoC4/I2CM.c **** *
  10:.\Generated_Source\PSoC4/I2CM.c **** *******************************************************************************
  11:.\Generated_Source\PSoC4/I2CM.c **** * \copyright
  12:.\Generated_Source\PSoC4/I2CM.c **** * Copyright 2013-2016, Cypress Semiconductor Corporation.  All rights reserved.
  13:.\Generated_Source\PSoC4/I2CM.c **** * You may use this file only in accordance with the license, terms, conditions,
  14:.\Generated_Source\PSoC4/I2CM.c **** * disclaimers, and limitations in the end user license agreement accompanying
  15:.\Generated_Source\PSoC4/I2CM.c **** * the software package with which this file was provided.
  16:.\Generated_Source\PSoC4/I2CM.c **** *******************************************************************************/
  17:.\Generated_Source\PSoC4/I2CM.c **** 
  18:.\Generated_Source\PSoC4/I2CM.c **** #include "I2CM_PVT.h"
  19:.\Generated_Source\PSoC4/I2CM.c **** 
  20:.\Generated_Source\PSoC4/I2CM.c **** #if (I2CM_SCB_MODE_I2C_INC)
ARM GAS  C:\Users\humon\AppData\Local\Temp\ccsYG7Ua.s 			page 2


  21:.\Generated_Source\PSoC4/I2CM.c ****     #include "I2CM_I2C_PVT.h"
  22:.\Generated_Source\PSoC4/I2CM.c **** #endif /* (I2CM_SCB_MODE_I2C_INC) */
  23:.\Generated_Source\PSoC4/I2CM.c **** 
  24:.\Generated_Source\PSoC4/I2CM.c **** #if (I2CM_SCB_MODE_EZI2C_INC)
  25:.\Generated_Source\PSoC4/I2CM.c ****     #include "I2CM_EZI2C_PVT.h"
  26:.\Generated_Source\PSoC4/I2CM.c **** #endif /* (I2CM_SCB_MODE_EZI2C_INC) */
  27:.\Generated_Source\PSoC4/I2CM.c **** 
  28:.\Generated_Source\PSoC4/I2CM.c **** #if (I2CM_SCB_MODE_SPI_INC || I2CM_SCB_MODE_UART_INC)
  29:.\Generated_Source\PSoC4/I2CM.c ****     #include "I2CM_SPI_UART_PVT.h"
  30:.\Generated_Source\PSoC4/I2CM.c **** #endif /* (I2CM_SCB_MODE_SPI_INC || I2CM_SCB_MODE_UART_INC) */
  31:.\Generated_Source\PSoC4/I2CM.c **** 
  32:.\Generated_Source\PSoC4/I2CM.c **** 
  33:.\Generated_Source\PSoC4/I2CM.c **** /***************************************
  34:.\Generated_Source\PSoC4/I2CM.c **** *    Run Time Configuration Vars
  35:.\Generated_Source\PSoC4/I2CM.c **** ***************************************/
  36:.\Generated_Source\PSoC4/I2CM.c **** 
  37:.\Generated_Source\PSoC4/I2CM.c **** /* Stores internal component configuration for Unconfigured mode */
  38:.\Generated_Source\PSoC4/I2CM.c **** #if (I2CM_SCB_MODE_UNCONFIG_CONST_CFG)
  39:.\Generated_Source\PSoC4/I2CM.c ****     /* Common configuration variables */
  40:.\Generated_Source\PSoC4/I2CM.c ****     uint8 I2CM_scbMode = I2CM_SCB_MODE_UNCONFIG;
  41:.\Generated_Source\PSoC4/I2CM.c ****     uint8 I2CM_scbEnableWake;
  42:.\Generated_Source\PSoC4/I2CM.c ****     uint8 I2CM_scbEnableIntr;
  43:.\Generated_Source\PSoC4/I2CM.c **** 
  44:.\Generated_Source\PSoC4/I2CM.c ****     /* I2C configuration variables */
  45:.\Generated_Source\PSoC4/I2CM.c ****     uint8 I2CM_mode;
  46:.\Generated_Source\PSoC4/I2CM.c ****     uint8 I2CM_acceptAddr;
  47:.\Generated_Source\PSoC4/I2CM.c **** 
  48:.\Generated_Source\PSoC4/I2CM.c ****     /* SPI/UART configuration variables */
  49:.\Generated_Source\PSoC4/I2CM.c ****     volatile uint8 * I2CM_rxBuffer;
  50:.\Generated_Source\PSoC4/I2CM.c ****     uint8  I2CM_rxDataBits;
  51:.\Generated_Source\PSoC4/I2CM.c ****     uint32 I2CM_rxBufferSize;
  52:.\Generated_Source\PSoC4/I2CM.c **** 
  53:.\Generated_Source\PSoC4/I2CM.c ****     volatile uint8 * I2CM_txBuffer;
  54:.\Generated_Source\PSoC4/I2CM.c ****     uint8  I2CM_txDataBits;
  55:.\Generated_Source\PSoC4/I2CM.c ****     uint32 I2CM_txBufferSize;
  56:.\Generated_Source\PSoC4/I2CM.c **** 
  57:.\Generated_Source\PSoC4/I2CM.c ****     /* EZI2C configuration variables */
  58:.\Generated_Source\PSoC4/I2CM.c ****     uint8 I2CM_numberOfAddr;
  59:.\Generated_Source\PSoC4/I2CM.c ****     uint8 I2CM_subAddrSize;
  60:.\Generated_Source\PSoC4/I2CM.c **** #endif /* (I2CM_SCB_MODE_UNCONFIG_CONST_CFG) */
  61:.\Generated_Source\PSoC4/I2CM.c **** 
  62:.\Generated_Source\PSoC4/I2CM.c **** 
  63:.\Generated_Source\PSoC4/I2CM.c **** /***************************************
  64:.\Generated_Source\PSoC4/I2CM.c **** *     Common SCB Vars
  65:.\Generated_Source\PSoC4/I2CM.c **** ***************************************/
  66:.\Generated_Source\PSoC4/I2CM.c **** /**
  67:.\Generated_Source\PSoC4/I2CM.c **** * \addtogroup group_general
  68:.\Generated_Source\PSoC4/I2CM.c **** * \{
  69:.\Generated_Source\PSoC4/I2CM.c **** */
  70:.\Generated_Source\PSoC4/I2CM.c **** 
  71:.\Generated_Source\PSoC4/I2CM.c **** /** I2CM_initVar indicates whether the I2CM 
  72:.\Generated_Source\PSoC4/I2CM.c **** *  component has been initialized. The variable is initialized to 0 
  73:.\Generated_Source\PSoC4/I2CM.c **** *  and set to 1 the first time SCB_Start() is called. This allows 
  74:.\Generated_Source\PSoC4/I2CM.c **** *  the component to restart without reinitialization after the first 
  75:.\Generated_Source\PSoC4/I2CM.c **** *  call to the I2CM_Start() routine.
  76:.\Generated_Source\PSoC4/I2CM.c **** *
  77:.\Generated_Source\PSoC4/I2CM.c **** *  If re-initialization of the component is required, then the 
ARM GAS  C:\Users\humon\AppData\Local\Temp\ccsYG7Ua.s 			page 3


  78:.\Generated_Source\PSoC4/I2CM.c **** *  I2CM_Init() function can be called before the 
  79:.\Generated_Source\PSoC4/I2CM.c **** *  I2CM_Start() or I2CM_Enable() function.
  80:.\Generated_Source\PSoC4/I2CM.c **** */
  81:.\Generated_Source\PSoC4/I2CM.c **** uint8 I2CM_initVar = 0u;
  82:.\Generated_Source\PSoC4/I2CM.c **** 
  83:.\Generated_Source\PSoC4/I2CM.c **** 
  84:.\Generated_Source\PSoC4/I2CM.c **** #if (! (I2CM_SCB_MODE_I2C_CONST_CFG || \
  85:.\Generated_Source\PSoC4/I2CM.c ****         I2CM_SCB_MODE_EZI2C_CONST_CFG))
  86:.\Generated_Source\PSoC4/I2CM.c ****     /** This global variable stores TX interrupt sources after 
  87:.\Generated_Source\PSoC4/I2CM.c ****     * I2CM_Stop() is called. Only these TX interrupt sources 
  88:.\Generated_Source\PSoC4/I2CM.c ****     * will be restored on a subsequent I2CM_Enable() call.
  89:.\Generated_Source\PSoC4/I2CM.c ****     */
  90:.\Generated_Source\PSoC4/I2CM.c ****     uint16 I2CM_IntrTxMask = 0u;
  91:.\Generated_Source\PSoC4/I2CM.c **** #endif /* (! (I2CM_SCB_MODE_I2C_CONST_CFG || \
  92:.\Generated_Source\PSoC4/I2CM.c ****               I2CM_SCB_MODE_EZI2C_CONST_CFG)) */
  93:.\Generated_Source\PSoC4/I2CM.c **** /** \} globals */
  94:.\Generated_Source\PSoC4/I2CM.c **** 
  95:.\Generated_Source\PSoC4/I2CM.c **** #if (I2CM_SCB_IRQ_INTERNAL)
  96:.\Generated_Source\PSoC4/I2CM.c **** #if !defined (CY_REMOVE_I2CM_CUSTOM_INTR_HANDLER)
  97:.\Generated_Source\PSoC4/I2CM.c ****     void (*I2CM_customIntrHandler)(void) = NULL;
  98:.\Generated_Source\PSoC4/I2CM.c **** #endif /* !defined (CY_REMOVE_I2CM_CUSTOM_INTR_HANDLER) */
  99:.\Generated_Source\PSoC4/I2CM.c **** #endif /* (I2CM_SCB_IRQ_INTERNAL) */
 100:.\Generated_Source\PSoC4/I2CM.c **** 
 101:.\Generated_Source\PSoC4/I2CM.c **** 
 102:.\Generated_Source\PSoC4/I2CM.c **** /***************************************
 103:.\Generated_Source\PSoC4/I2CM.c **** *    Private Function Prototypes
 104:.\Generated_Source\PSoC4/I2CM.c **** ***************************************/
 105:.\Generated_Source\PSoC4/I2CM.c **** 
 106:.\Generated_Source\PSoC4/I2CM.c **** static void I2CM_ScbEnableIntr(void);
 107:.\Generated_Source\PSoC4/I2CM.c **** static void I2CM_ScbModeStop(void);
 108:.\Generated_Source\PSoC4/I2CM.c **** static void I2CM_ScbModePostEnable(void);
 109:.\Generated_Source\PSoC4/I2CM.c **** 
 110:.\Generated_Source\PSoC4/I2CM.c **** 
 111:.\Generated_Source\PSoC4/I2CM.c **** /*******************************************************************************
 112:.\Generated_Source\PSoC4/I2CM.c **** * Function Name: I2CM_Init
 113:.\Generated_Source\PSoC4/I2CM.c **** ****************************************************************************//**
 114:.\Generated_Source\PSoC4/I2CM.c **** *
 115:.\Generated_Source\PSoC4/I2CM.c **** *  Initializes the I2CM component to operate in one of the selected
 116:.\Generated_Source\PSoC4/I2CM.c **** *  configurations: I2C, SPI, UART or EZI2C.
 117:.\Generated_Source\PSoC4/I2CM.c **** *  When the configuration is set to "Unconfigured SCB", this function does
 118:.\Generated_Source\PSoC4/I2CM.c **** *  not do any initialization. Use mode-specific initialization APIs instead:
 119:.\Generated_Source\PSoC4/I2CM.c **** *  I2CM_I2CInit, I2CM_SpiInit, 
 120:.\Generated_Source\PSoC4/I2CM.c **** *  I2CM_UartInit or I2CM_EzI2CInit.
 121:.\Generated_Source\PSoC4/I2CM.c **** *
 122:.\Generated_Source\PSoC4/I2CM.c **** *******************************************************************************/
 123:.\Generated_Source\PSoC4/I2CM.c **** void I2CM_Init(void)
 124:.\Generated_Source\PSoC4/I2CM.c **** {
  38              		.loc 1 124 0
  39              		.cfi_startproc
  40 0000 80B5     		push	{r7, lr}
  41              		.cfi_def_cfa_offset 8
  42              		.cfi_offset 7, -8
  43              		.cfi_offset 14, -4
  44 0002 00AF     		add	r7, sp, #0
  45              		.cfi_def_cfa_register 7
 125:.\Generated_Source\PSoC4/I2CM.c **** #if (I2CM_SCB_MODE_UNCONFIG_CONST_CFG)
 126:.\Generated_Source\PSoC4/I2CM.c ****     if (I2CM_SCB_MODE_UNCONFIG_RUNTM_CFG)
ARM GAS  C:\Users\humon\AppData\Local\Temp\ccsYG7Ua.s 			page 4


 127:.\Generated_Source\PSoC4/I2CM.c ****     {
 128:.\Generated_Source\PSoC4/I2CM.c ****         I2CM_initVar = 0u;
 129:.\Generated_Source\PSoC4/I2CM.c ****     }
 130:.\Generated_Source\PSoC4/I2CM.c ****     else
 131:.\Generated_Source\PSoC4/I2CM.c ****     {
 132:.\Generated_Source\PSoC4/I2CM.c ****         /* Initialization was done before this function call */
 133:.\Generated_Source\PSoC4/I2CM.c ****     }
 134:.\Generated_Source\PSoC4/I2CM.c **** 
 135:.\Generated_Source\PSoC4/I2CM.c **** #elif (I2CM_SCB_MODE_I2C_CONST_CFG)
 136:.\Generated_Source\PSoC4/I2CM.c ****     I2CM_I2CInit();
  46              		.loc 1 136 0
  47 0004 FFF7FEFF 		bl	I2CM_I2CInit
 137:.\Generated_Source\PSoC4/I2CM.c **** 
 138:.\Generated_Source\PSoC4/I2CM.c **** #elif (I2CM_SCB_MODE_SPI_CONST_CFG)
 139:.\Generated_Source\PSoC4/I2CM.c ****     I2CM_SpiInit();
 140:.\Generated_Source\PSoC4/I2CM.c **** 
 141:.\Generated_Source\PSoC4/I2CM.c **** #elif (I2CM_SCB_MODE_UART_CONST_CFG)
 142:.\Generated_Source\PSoC4/I2CM.c ****     I2CM_UartInit();
 143:.\Generated_Source\PSoC4/I2CM.c **** 
 144:.\Generated_Source\PSoC4/I2CM.c **** #elif (I2CM_SCB_MODE_EZI2C_CONST_CFG)
 145:.\Generated_Source\PSoC4/I2CM.c ****     I2CM_EzI2CInit();
 146:.\Generated_Source\PSoC4/I2CM.c **** 
 147:.\Generated_Source\PSoC4/I2CM.c **** #endif /* (I2CM_SCB_MODE_UNCONFIG_CONST_CFG) */
 148:.\Generated_Source\PSoC4/I2CM.c **** }
  48              		.loc 1 148 0
  49 0008 BD46     		mov	sp, r7
  50              		@ sp needed
  51 000a 80BD     		pop	{r7, pc}
  52              		.cfi_endproc
  53              	.LFE2:
  54              		.size	I2CM_Init, .-I2CM_Init
  55              		.section	.text.I2CM_Enable,"ax",%progbits
  56              		.align	2
  57              		.global	I2CM_Enable
  58              		.code	16
  59              		.thumb_func
  60              		.type	I2CM_Enable, %function
  61              	I2CM_Enable:
  62              	.LFB3:
 149:.\Generated_Source\PSoC4/I2CM.c **** 
 150:.\Generated_Source\PSoC4/I2CM.c **** 
 151:.\Generated_Source\PSoC4/I2CM.c **** /*******************************************************************************
 152:.\Generated_Source\PSoC4/I2CM.c **** * Function Name: I2CM_Enable
 153:.\Generated_Source\PSoC4/I2CM.c **** ****************************************************************************//**
 154:.\Generated_Source\PSoC4/I2CM.c **** *
 155:.\Generated_Source\PSoC4/I2CM.c **** *  Enables I2CM component operation: activates the hardware and 
 156:.\Generated_Source\PSoC4/I2CM.c **** *  internal interrupt. It also restores TX interrupt sources disabled after the 
 157:.\Generated_Source\PSoC4/I2CM.c **** *  I2CM_Stop() function was called (note that level-triggered TX 
 158:.\Generated_Source\PSoC4/I2CM.c **** *  interrupt sources remain disabled to not cause code lock-up).
 159:.\Generated_Source\PSoC4/I2CM.c **** *  For I2C and EZI2C modes the interrupt is internal and mandatory for 
 160:.\Generated_Source\PSoC4/I2CM.c **** *  operation. For SPI and UART modes the interrupt can be configured as none, 
 161:.\Generated_Source\PSoC4/I2CM.c **** *  internal or external.
 162:.\Generated_Source\PSoC4/I2CM.c **** *  The I2CM configuration should be not changed when the component
 163:.\Generated_Source\PSoC4/I2CM.c **** *  is enabled. Any configuration changes should be made after disabling the 
 164:.\Generated_Source\PSoC4/I2CM.c **** *  component.
 165:.\Generated_Source\PSoC4/I2CM.c **** *  When configuration is set to “Unconfigured I2CM”, the component 
 166:.\Generated_Source\PSoC4/I2CM.c **** *  must first be initialized to operate in one of the following configurations: 
ARM GAS  C:\Users\humon\AppData\Local\Temp\ccsYG7Ua.s 			page 5


 167:.\Generated_Source\PSoC4/I2CM.c **** *  I2C, SPI, UART or EZ I2C, using the mode-specific initialization API. 
 168:.\Generated_Source\PSoC4/I2CM.c **** *  Otherwise this function does not enable the component.
 169:.\Generated_Source\PSoC4/I2CM.c **** *
 170:.\Generated_Source\PSoC4/I2CM.c **** *******************************************************************************/
 171:.\Generated_Source\PSoC4/I2CM.c **** void I2CM_Enable(void)
 172:.\Generated_Source\PSoC4/I2CM.c **** {
  63              		.loc 1 172 0
  64              		.cfi_startproc
  65 0000 80B5     		push	{r7, lr}
  66              		.cfi_def_cfa_offset 8
  67              		.cfi_offset 7, -8
  68              		.cfi_offset 14, -4
  69 0002 00AF     		add	r7, sp, #0
  70              		.cfi_def_cfa_register 7
 173:.\Generated_Source\PSoC4/I2CM.c **** #if (I2CM_SCB_MODE_UNCONFIG_CONST_CFG)
 174:.\Generated_Source\PSoC4/I2CM.c ****     /* Enable SCB block, only if it is already configured */
 175:.\Generated_Source\PSoC4/I2CM.c ****     if (!I2CM_SCB_MODE_UNCONFIG_RUNTM_CFG)
 176:.\Generated_Source\PSoC4/I2CM.c ****     {
 177:.\Generated_Source\PSoC4/I2CM.c ****         I2CM_CTRL_REG |= I2CM_CTRL_ENABLED;
 178:.\Generated_Source\PSoC4/I2CM.c **** 
 179:.\Generated_Source\PSoC4/I2CM.c ****         I2CM_ScbEnableIntr();
 180:.\Generated_Source\PSoC4/I2CM.c **** 
 181:.\Generated_Source\PSoC4/I2CM.c ****         /* Call PostEnable function specific to current operation mode */
 182:.\Generated_Source\PSoC4/I2CM.c ****         I2CM_ScbModePostEnable();
 183:.\Generated_Source\PSoC4/I2CM.c ****     }
 184:.\Generated_Source\PSoC4/I2CM.c **** #else
 185:.\Generated_Source\PSoC4/I2CM.c ****     I2CM_CTRL_REG |= I2CM_CTRL_ENABLED;
  71              		.loc 1 185 0
  72 0004 064B     		ldr	r3, .L3
  73 0006 064A     		ldr	r2, .L3
  74 0008 1268     		ldr	r2, [r2]
  75 000a 8021     		mov	r1, #128
  76 000c 0906     		lsl	r1, r1, #24
  77 000e 0A43     		orr	r2, r1
  78 0010 1A60     		str	r2, [r3]
 186:.\Generated_Source\PSoC4/I2CM.c **** 
 187:.\Generated_Source\PSoC4/I2CM.c ****     I2CM_ScbEnableIntr();
  79              		.loc 1 187 0
  80 0012 FFF7FEFF 		bl	I2CM_ScbEnableIntr
 188:.\Generated_Source\PSoC4/I2CM.c **** 
 189:.\Generated_Source\PSoC4/I2CM.c ****     /* Call PostEnable function specific to current operation mode */
 190:.\Generated_Source\PSoC4/I2CM.c ****     I2CM_ScbModePostEnable();
  81              		.loc 1 190 0
  82 0016 FFF7FEFF 		bl	I2CM_ScbModePostEnable
 191:.\Generated_Source\PSoC4/I2CM.c **** #endif /* (I2CM_SCB_MODE_UNCONFIG_CONST_CFG) */
 192:.\Generated_Source\PSoC4/I2CM.c **** }
  83              		.loc 1 192 0
  84 001a BD46     		mov	sp, r7
  85              		@ sp needed
  86 001c 80BD     		pop	{r7, pc}
  87              	.L4:
  88 001e C046     		.align	2
  89              	.L3:
  90 0020 00002540 		.word	1076166656
  91              		.cfi_endproc
  92              	.LFE3:
  93              		.size	I2CM_Enable, .-I2CM_Enable
ARM GAS  C:\Users\humon\AppData\Local\Temp\ccsYG7Ua.s 			page 6


  94              		.section	.text.I2CM_Start,"ax",%progbits
  95              		.align	2
  96              		.global	I2CM_Start
  97              		.code	16
  98              		.thumb_func
  99              		.type	I2CM_Start, %function
 100              	I2CM_Start:
 101              	.LFB4:
 193:.\Generated_Source\PSoC4/I2CM.c **** 
 194:.\Generated_Source\PSoC4/I2CM.c **** 
 195:.\Generated_Source\PSoC4/I2CM.c **** /*******************************************************************************
 196:.\Generated_Source\PSoC4/I2CM.c **** * Function Name: I2CM_Start
 197:.\Generated_Source\PSoC4/I2CM.c **** ****************************************************************************//**
 198:.\Generated_Source\PSoC4/I2CM.c **** *
 199:.\Generated_Source\PSoC4/I2CM.c **** *  Invokes I2CM_Init() and I2CM_Enable().
 200:.\Generated_Source\PSoC4/I2CM.c **** *  After this function call, the component is enabled and ready for operation.
 201:.\Generated_Source\PSoC4/I2CM.c **** *  When configuration is set to "Unconfigured SCB", the component must first be
 202:.\Generated_Source\PSoC4/I2CM.c **** *  initialized to operate in one of the following configurations: I2C, SPI, UART
 203:.\Generated_Source\PSoC4/I2CM.c **** *  or EZI2C. Otherwise this function does not enable the component.
 204:.\Generated_Source\PSoC4/I2CM.c **** *
 205:.\Generated_Source\PSoC4/I2CM.c **** * \globalvars
 206:.\Generated_Source\PSoC4/I2CM.c **** *  I2CM_initVar - used to check initial configuration, modified
 207:.\Generated_Source\PSoC4/I2CM.c **** *  on first function call.
 208:.\Generated_Source\PSoC4/I2CM.c **** *
 209:.\Generated_Source\PSoC4/I2CM.c **** *******************************************************************************/
 210:.\Generated_Source\PSoC4/I2CM.c **** void I2CM_Start(void)
 211:.\Generated_Source\PSoC4/I2CM.c **** {
 102              		.loc 1 211 0
 103              		.cfi_startproc
 104 0000 80B5     		push	{r7, lr}
 105              		.cfi_def_cfa_offset 8
 106              		.cfi_offset 7, -8
 107              		.cfi_offset 14, -4
 108 0002 00AF     		add	r7, sp, #0
 109              		.cfi_def_cfa_register 7
 212:.\Generated_Source\PSoC4/I2CM.c ****     if (0u == I2CM_initVar)
 110              		.loc 1 212 0
 111 0004 064B     		ldr	r3, .L7
 112 0006 1B78     		ldrb	r3, [r3]
 113 0008 002B     		cmp	r3, #0
 114 000a 04D1     		bne	.L6
 213:.\Generated_Source\PSoC4/I2CM.c ****     {
 214:.\Generated_Source\PSoC4/I2CM.c ****         I2CM_Init();
 115              		.loc 1 214 0
 116 000c FFF7FEFF 		bl	I2CM_Init
 215:.\Generated_Source\PSoC4/I2CM.c ****         I2CM_initVar = 1u; /* Component was initialized */
 117              		.loc 1 215 0
 118 0010 034B     		ldr	r3, .L7
 119 0012 0122     		mov	r2, #1
 120 0014 1A70     		strb	r2, [r3]
 121              	.L6:
 216:.\Generated_Source\PSoC4/I2CM.c ****     }
 217:.\Generated_Source\PSoC4/I2CM.c **** 
 218:.\Generated_Source\PSoC4/I2CM.c ****     I2CM_Enable();
 122              		.loc 1 218 0
 123 0016 FFF7FEFF 		bl	I2CM_Enable
 219:.\Generated_Source\PSoC4/I2CM.c **** }
ARM GAS  C:\Users\humon\AppData\Local\Temp\ccsYG7Ua.s 			page 7


 124              		.loc 1 219 0
 125 001a BD46     		mov	sp, r7
 126              		@ sp needed
 127 001c 80BD     		pop	{r7, pc}
 128              	.L8:
 129 001e C046     		.align	2
 130              	.L7:
 131 0020 00000000 		.word	I2CM_initVar
 132              		.cfi_endproc
 133              	.LFE4:
 134              		.size	I2CM_Start, .-I2CM_Start
 135              		.section	.text.I2CM_Stop,"ax",%progbits
 136              		.align	2
 137              		.global	I2CM_Stop
 138              		.code	16
 139              		.thumb_func
 140              		.type	I2CM_Stop, %function
 141              	I2CM_Stop:
 142              	.LFB5:
 220:.\Generated_Source\PSoC4/I2CM.c **** 
 221:.\Generated_Source\PSoC4/I2CM.c **** 
 222:.\Generated_Source\PSoC4/I2CM.c **** /*******************************************************************************
 223:.\Generated_Source\PSoC4/I2CM.c **** * Function Name: I2CM_Stop
 224:.\Generated_Source\PSoC4/I2CM.c **** ****************************************************************************//**
 225:.\Generated_Source\PSoC4/I2CM.c **** *
 226:.\Generated_Source\PSoC4/I2CM.c **** *  Disables the I2CM component: disable the hardware and internal 
 227:.\Generated_Source\PSoC4/I2CM.c **** *  interrupt. It also disables all TX interrupt sources so as not to cause an 
 228:.\Generated_Source\PSoC4/I2CM.c **** *  unexpected interrupt trigger because after the component is enabled, the 
 229:.\Generated_Source\PSoC4/I2CM.c **** *  TX FIFO is empty.
 230:.\Generated_Source\PSoC4/I2CM.c **** *  Refer to the function I2CM_Enable() for the interrupt 
 231:.\Generated_Source\PSoC4/I2CM.c **** *  configuration details.
 232:.\Generated_Source\PSoC4/I2CM.c **** *  This function disables the SCB component without checking to see if 
 233:.\Generated_Source\PSoC4/I2CM.c **** *  communication is in progress. Before calling this function it may be 
 234:.\Generated_Source\PSoC4/I2CM.c **** *  necessary to check the status of communication to make sure communication 
 235:.\Generated_Source\PSoC4/I2CM.c **** *  is complete. If this is not done then communication could be stopped mid 
 236:.\Generated_Source\PSoC4/I2CM.c **** *  byte and corrupted data could result.
 237:.\Generated_Source\PSoC4/I2CM.c **** *
 238:.\Generated_Source\PSoC4/I2CM.c **** *******************************************************************************/
 239:.\Generated_Source\PSoC4/I2CM.c **** void I2CM_Stop(void)
 240:.\Generated_Source\PSoC4/I2CM.c **** {
 143              		.loc 1 240 0
 144              		.cfi_startproc
 145 0000 80B5     		push	{r7, lr}
 146              		.cfi_def_cfa_offset 8
 147              		.cfi_offset 7, -8
 148              		.cfi_offset 14, -4
 149 0002 00AF     		add	r7, sp, #0
 150              		.cfi_def_cfa_register 7
 241:.\Generated_Source\PSoC4/I2CM.c **** #if (I2CM_SCB_IRQ_INTERNAL)
 242:.\Generated_Source\PSoC4/I2CM.c ****     I2CM_DisableInt();
 151              		.loc 1 242 0
 152 0004 0A20     		mov	r0, #10
 153 0006 FFF7FEFF 		bl	CyIntDisable
 243:.\Generated_Source\PSoC4/I2CM.c **** #endif /* (I2CM_SCB_IRQ_INTERNAL) */
 244:.\Generated_Source\PSoC4/I2CM.c **** 
 245:.\Generated_Source\PSoC4/I2CM.c ****     /* Call Stop function specific to current operation mode */
 246:.\Generated_Source\PSoC4/I2CM.c ****     I2CM_ScbModeStop();
ARM GAS  C:\Users\humon\AppData\Local\Temp\ccsYG7Ua.s 			page 8


 154              		.loc 1 246 0
 155 000a FFF7FEFF 		bl	I2CM_ScbModeStop
 247:.\Generated_Source\PSoC4/I2CM.c **** 
 248:.\Generated_Source\PSoC4/I2CM.c ****     /* Disable SCB IP */
 249:.\Generated_Source\PSoC4/I2CM.c ****     I2CM_CTRL_REG &= (uint32) ~I2CM_CTRL_ENABLED;
 156              		.loc 1 249 0
 157 000e 074B     		ldr	r3, .L10
 158 0010 064A     		ldr	r2, .L10
 159 0012 1268     		ldr	r2, [r2]
 160 0014 5200     		lsl	r2, r2, #1
 161 0016 5208     		lsr	r2, r2, #1
 162 0018 1A60     		str	r2, [r3]
 250:.\Generated_Source\PSoC4/I2CM.c **** 
 251:.\Generated_Source\PSoC4/I2CM.c ****     /* Disable all TX interrupt sources so as not to cause an unexpected
 252:.\Generated_Source\PSoC4/I2CM.c ****     * interrupt trigger after the component will be enabled because the 
 253:.\Generated_Source\PSoC4/I2CM.c ****     * TX FIFO is empty.
 254:.\Generated_Source\PSoC4/I2CM.c ****     * For SCB IP v0, it is critical as it does not mask-out interrupt
 255:.\Generated_Source\PSoC4/I2CM.c ****     * sources when it is disabled. This can cause a code lock-up in the
 256:.\Generated_Source\PSoC4/I2CM.c ****     * interrupt handler because TX FIFO cannot be loaded after the block
 257:.\Generated_Source\PSoC4/I2CM.c ****     * is disabled.
 258:.\Generated_Source\PSoC4/I2CM.c ****     */
 259:.\Generated_Source\PSoC4/I2CM.c ****     I2CM_SetTxInterruptMode(I2CM_NO_INTR_SOURCES);
 163              		.loc 1 259 0
 164 001a 054B     		ldr	r3, .L10+4
 165 001c 0022     		mov	r2, #0
 166 001e 1A60     		str	r2, [r3]
 260:.\Generated_Source\PSoC4/I2CM.c **** 
 261:.\Generated_Source\PSoC4/I2CM.c **** #if (I2CM_SCB_IRQ_INTERNAL)
 262:.\Generated_Source\PSoC4/I2CM.c ****     I2CM_ClearPendingInt();
 167              		.loc 1 262 0
 168 0020 0A20     		mov	r0, #10
 169 0022 FFF7FEFF 		bl	CyIntClearPending
 263:.\Generated_Source\PSoC4/I2CM.c **** #endif /* (I2CM_SCB_IRQ_INTERNAL) */
 264:.\Generated_Source\PSoC4/I2CM.c **** }
 170              		.loc 1 264 0
 171 0026 BD46     		mov	sp, r7
 172              		@ sp needed
 173 0028 80BD     		pop	{r7, pc}
 174              	.L11:
 175 002a C046     		.align	2
 176              	.L10:
 177 002c 00002540 		.word	1076166656
 178 0030 880F2540 		.word	1076170632
 179              		.cfi_endproc
 180              	.LFE5:
 181              		.size	I2CM_Stop, .-I2CM_Stop
 182              		.section	.text.I2CM_SetRxFifoLevel,"ax",%progbits
 183              		.align	2
 184              		.global	I2CM_SetRxFifoLevel
 185              		.code	16
 186              		.thumb_func
 187              		.type	I2CM_SetRxFifoLevel, %function
 188              	I2CM_SetRxFifoLevel:
 189              	.LFB6:
 265:.\Generated_Source\PSoC4/I2CM.c **** 
 266:.\Generated_Source\PSoC4/I2CM.c **** 
 267:.\Generated_Source\PSoC4/I2CM.c **** /*******************************************************************************
ARM GAS  C:\Users\humon\AppData\Local\Temp\ccsYG7Ua.s 			page 9


 268:.\Generated_Source\PSoC4/I2CM.c **** * Function Name: I2CM_SetRxFifoLevel
 269:.\Generated_Source\PSoC4/I2CM.c **** ****************************************************************************//**
 270:.\Generated_Source\PSoC4/I2CM.c **** *
 271:.\Generated_Source\PSoC4/I2CM.c **** *  Sets level in the RX FIFO to generate a RX level interrupt.
 272:.\Generated_Source\PSoC4/I2CM.c **** *  When the RX FIFO has more entries than the RX FIFO level an RX level
 273:.\Generated_Source\PSoC4/I2CM.c **** *  interrupt request is generated.
 274:.\Generated_Source\PSoC4/I2CM.c **** *
 275:.\Generated_Source\PSoC4/I2CM.c **** *  \param level: Level in the RX FIFO to generate RX level interrupt.
 276:.\Generated_Source\PSoC4/I2CM.c **** *   The range of valid level values is between 0 and RX FIFO depth - 1.
 277:.\Generated_Source\PSoC4/I2CM.c **** *
 278:.\Generated_Source\PSoC4/I2CM.c **** *******************************************************************************/
 279:.\Generated_Source\PSoC4/I2CM.c **** void I2CM_SetRxFifoLevel(uint32 level)
 280:.\Generated_Source\PSoC4/I2CM.c **** {
 190              		.loc 1 280 0
 191              		.cfi_startproc
 192 0000 80B5     		push	{r7, lr}
 193              		.cfi_def_cfa_offset 8
 194              		.cfi_offset 7, -8
 195              		.cfi_offset 14, -4
 196 0002 84B0     		sub	sp, sp, #16
 197              		.cfi_def_cfa_offset 24
 198 0004 00AF     		add	r7, sp, #0
 199              		.cfi_def_cfa_register 7
 200 0006 7860     		str	r0, [r7, #4]
 281:.\Generated_Source\PSoC4/I2CM.c ****     uint32 rxFifoCtrl;
 282:.\Generated_Source\PSoC4/I2CM.c **** 
 283:.\Generated_Source\PSoC4/I2CM.c ****     rxFifoCtrl = I2CM_RX_FIFO_CTRL_REG;
 201              		.loc 1 283 0
 202 0008 094B     		ldr	r3, .L13
 203 000a 1B68     		ldr	r3, [r3]
 204 000c FB60     		str	r3, [r7, #12]
 284:.\Generated_Source\PSoC4/I2CM.c **** 
 285:.\Generated_Source\PSoC4/I2CM.c ****     rxFifoCtrl &= ((uint32) ~I2CM_RX_FIFO_CTRL_TRIGGER_LEVEL_MASK); /* Clear level mask bits */
 205              		.loc 1 285 0
 206 000e FB68     		ldr	r3, [r7, #12]
 207 0010 0F22     		mov	r2, #15
 208 0012 9343     		bic	r3, r2
 209 0014 FB60     		str	r3, [r7, #12]
 286:.\Generated_Source\PSoC4/I2CM.c ****     rxFifoCtrl |= ((uint32) (I2CM_RX_FIFO_CTRL_TRIGGER_LEVEL_MASK & level));
 210              		.loc 1 286 0
 211 0016 7B68     		ldr	r3, [r7, #4]
 212 0018 0F22     		mov	r2, #15
 213 001a 1340     		and	r3, r2
 214 001c FA68     		ldr	r2, [r7, #12]
 215 001e 1343     		orr	r3, r2
 216 0020 FB60     		str	r3, [r7, #12]
 287:.\Generated_Source\PSoC4/I2CM.c **** 
 288:.\Generated_Source\PSoC4/I2CM.c ****     I2CM_RX_FIFO_CTRL_REG = rxFifoCtrl;
 217              		.loc 1 288 0
 218 0022 034B     		ldr	r3, .L13
 219 0024 FA68     		ldr	r2, [r7, #12]
 220 0026 1A60     		str	r2, [r3]
 289:.\Generated_Source\PSoC4/I2CM.c **** }
 221              		.loc 1 289 0
 222 0028 BD46     		mov	sp, r7
 223 002a 04B0     		add	sp, sp, #16
 224              		@ sp needed
ARM GAS  C:\Users\humon\AppData\Local\Temp\ccsYG7Ua.s 			page 10


 225 002c 80BD     		pop	{r7, pc}
 226              	.L14:
 227 002e C046     		.align	2
 228              	.L13:
 229 0030 04032540 		.word	1076167428
 230              		.cfi_endproc
 231              	.LFE6:
 232              		.size	I2CM_SetRxFifoLevel, .-I2CM_SetRxFifoLevel
 233              		.section	.text.I2CM_SetTxFifoLevel,"ax",%progbits
 234              		.align	2
 235              		.global	I2CM_SetTxFifoLevel
 236              		.code	16
 237              		.thumb_func
 238              		.type	I2CM_SetTxFifoLevel, %function
 239              	I2CM_SetTxFifoLevel:
 240              	.LFB7:
 290:.\Generated_Source\PSoC4/I2CM.c **** 
 291:.\Generated_Source\PSoC4/I2CM.c **** 
 292:.\Generated_Source\PSoC4/I2CM.c **** /*******************************************************************************
 293:.\Generated_Source\PSoC4/I2CM.c **** * Function Name: I2CM_SetTxFifoLevel
 294:.\Generated_Source\PSoC4/I2CM.c **** ****************************************************************************//**
 295:.\Generated_Source\PSoC4/I2CM.c **** *
 296:.\Generated_Source\PSoC4/I2CM.c **** *  Sets level in the TX FIFO to generate a TX level interrupt.
 297:.\Generated_Source\PSoC4/I2CM.c **** *  When the TX FIFO has less entries than the TX FIFO level an TX level
 298:.\Generated_Source\PSoC4/I2CM.c **** *  interrupt request is generated.
 299:.\Generated_Source\PSoC4/I2CM.c **** *
 300:.\Generated_Source\PSoC4/I2CM.c **** *  \param level: Level in the TX FIFO to generate TX level interrupt.
 301:.\Generated_Source\PSoC4/I2CM.c **** *   The range of valid level values is between 0 and TX FIFO depth - 1.
 302:.\Generated_Source\PSoC4/I2CM.c **** *
 303:.\Generated_Source\PSoC4/I2CM.c **** *******************************************************************************/
 304:.\Generated_Source\PSoC4/I2CM.c **** void I2CM_SetTxFifoLevel(uint32 level)
 305:.\Generated_Source\PSoC4/I2CM.c **** {
 241              		.loc 1 305 0
 242              		.cfi_startproc
 243 0000 80B5     		push	{r7, lr}
 244              		.cfi_def_cfa_offset 8
 245              		.cfi_offset 7, -8
 246              		.cfi_offset 14, -4
 247 0002 84B0     		sub	sp, sp, #16
 248              		.cfi_def_cfa_offset 24
 249 0004 00AF     		add	r7, sp, #0
 250              		.cfi_def_cfa_register 7
 251 0006 7860     		str	r0, [r7, #4]
 306:.\Generated_Source\PSoC4/I2CM.c ****     uint32 txFifoCtrl;
 307:.\Generated_Source\PSoC4/I2CM.c **** 
 308:.\Generated_Source\PSoC4/I2CM.c ****     txFifoCtrl = I2CM_TX_FIFO_CTRL_REG;
 252              		.loc 1 308 0
 253 0008 094B     		ldr	r3, .L16
 254 000a 1B68     		ldr	r3, [r3]
 255 000c FB60     		str	r3, [r7, #12]
 309:.\Generated_Source\PSoC4/I2CM.c **** 
 310:.\Generated_Source\PSoC4/I2CM.c ****     txFifoCtrl &= ((uint32) ~I2CM_TX_FIFO_CTRL_TRIGGER_LEVEL_MASK); /* Clear level mask bits */
 256              		.loc 1 310 0
 257 000e FB68     		ldr	r3, [r7, #12]
 258 0010 0F22     		mov	r2, #15
 259 0012 9343     		bic	r3, r2
 260 0014 FB60     		str	r3, [r7, #12]
ARM GAS  C:\Users\humon\AppData\Local\Temp\ccsYG7Ua.s 			page 11


 311:.\Generated_Source\PSoC4/I2CM.c ****     txFifoCtrl |= ((uint32) (I2CM_TX_FIFO_CTRL_TRIGGER_LEVEL_MASK & level));
 261              		.loc 1 311 0
 262 0016 7B68     		ldr	r3, [r7, #4]
 263 0018 0F22     		mov	r2, #15
 264 001a 1340     		and	r3, r2
 265 001c FA68     		ldr	r2, [r7, #12]
 266 001e 1343     		orr	r3, r2
 267 0020 FB60     		str	r3, [r7, #12]
 312:.\Generated_Source\PSoC4/I2CM.c **** 
 313:.\Generated_Source\PSoC4/I2CM.c ****     I2CM_TX_FIFO_CTRL_REG = txFifoCtrl;
 268              		.loc 1 313 0
 269 0022 034B     		ldr	r3, .L16
 270 0024 FA68     		ldr	r2, [r7, #12]
 271 0026 1A60     		str	r2, [r3]
 314:.\Generated_Source\PSoC4/I2CM.c **** }
 272              		.loc 1 314 0
 273 0028 BD46     		mov	sp, r7
 274 002a 04B0     		add	sp, sp, #16
 275              		@ sp needed
 276 002c 80BD     		pop	{r7, pc}
 277              	.L17:
 278 002e C046     		.align	2
 279              	.L16:
 280 0030 04022540 		.word	1076167172
 281              		.cfi_endproc
 282              	.LFE7:
 283              		.size	I2CM_SetTxFifoLevel, .-I2CM_SetTxFifoLevel
 284              		.section	.text.I2CM_SetCustomInterruptHandler,"ax",%progbits
 285              		.align	2
 286              		.global	I2CM_SetCustomInterruptHandler
 287              		.code	16
 288              		.thumb_func
 289              		.type	I2CM_SetCustomInterruptHandler, %function
 290              	I2CM_SetCustomInterruptHandler:
 291              	.LFB8:
 315:.\Generated_Source\PSoC4/I2CM.c **** 
 316:.\Generated_Source\PSoC4/I2CM.c **** 
 317:.\Generated_Source\PSoC4/I2CM.c **** #if (I2CM_SCB_IRQ_INTERNAL)
 318:.\Generated_Source\PSoC4/I2CM.c ****     /*******************************************************************************
 319:.\Generated_Source\PSoC4/I2CM.c ****     * Function Name: I2CM_SetCustomInterruptHandler
 320:.\Generated_Source\PSoC4/I2CM.c ****     ****************************************************************************//**
 321:.\Generated_Source\PSoC4/I2CM.c ****     *
 322:.\Generated_Source\PSoC4/I2CM.c ****     *  Registers a function to be called by the internal interrupt handler.
 323:.\Generated_Source\PSoC4/I2CM.c ****     *  First the function that is registered is called, then the internal interrupt
 324:.\Generated_Source\PSoC4/I2CM.c ****     *  handler performs any operation such as software buffer management functions
 325:.\Generated_Source\PSoC4/I2CM.c ****     *  before the interrupt returns.  It is the user's responsibility not to break
 326:.\Generated_Source\PSoC4/I2CM.c ****     *  the software buffer operations. Only one custom handler is supported, which
 327:.\Generated_Source\PSoC4/I2CM.c ****     *  is the function provided by the most recent call.
 328:.\Generated_Source\PSoC4/I2CM.c ****     *  At the initialization time no custom handler is registered.
 329:.\Generated_Source\PSoC4/I2CM.c ****     *
 330:.\Generated_Source\PSoC4/I2CM.c ****     *  \param func: Pointer to the function to register.
 331:.\Generated_Source\PSoC4/I2CM.c ****     *        The value NULL indicates to remove the current custom interrupt
 332:.\Generated_Source\PSoC4/I2CM.c ****     *        handler.
 333:.\Generated_Source\PSoC4/I2CM.c ****     *
 334:.\Generated_Source\PSoC4/I2CM.c ****     *******************************************************************************/
 335:.\Generated_Source\PSoC4/I2CM.c ****     void I2CM_SetCustomInterruptHandler(void (*func)(void))
 336:.\Generated_Source\PSoC4/I2CM.c ****     {
ARM GAS  C:\Users\humon\AppData\Local\Temp\ccsYG7Ua.s 			page 12


 292              		.loc 1 336 0
 293              		.cfi_startproc
 294 0000 80B5     		push	{r7, lr}
 295              		.cfi_def_cfa_offset 8
 296              		.cfi_offset 7, -8
 297              		.cfi_offset 14, -4
 298 0002 82B0     		sub	sp, sp, #8
 299              		.cfi_def_cfa_offset 16
 300 0004 00AF     		add	r7, sp, #0
 301              		.cfi_def_cfa_register 7
 302 0006 7860     		str	r0, [r7, #4]
 337:.\Generated_Source\PSoC4/I2CM.c ****     #if !defined (CY_REMOVE_I2CM_CUSTOM_INTR_HANDLER)
 338:.\Generated_Source\PSoC4/I2CM.c ****         I2CM_customIntrHandler = func; /* Register interrupt handler */
 303              		.loc 1 338 0
 304 0008 024B     		ldr	r3, .L19
 305 000a 7A68     		ldr	r2, [r7, #4]
 306 000c 1A60     		str	r2, [r3]
 339:.\Generated_Source\PSoC4/I2CM.c ****     #else
 340:.\Generated_Source\PSoC4/I2CM.c ****         if (NULL != func)
 341:.\Generated_Source\PSoC4/I2CM.c ****         {
 342:.\Generated_Source\PSoC4/I2CM.c ****             /* Suppress compiler warning */
 343:.\Generated_Source\PSoC4/I2CM.c ****         }
 344:.\Generated_Source\PSoC4/I2CM.c ****     #endif /* !defined (CY_REMOVE_I2CM_CUSTOM_INTR_HANDLER) */
 345:.\Generated_Source\PSoC4/I2CM.c ****     }
 307              		.loc 1 345 0
 308 000e BD46     		mov	sp, r7
 309 0010 02B0     		add	sp, sp, #8
 310              		@ sp needed
 311 0012 80BD     		pop	{r7, pc}
 312              	.L20:
 313              		.align	2
 314              	.L19:
 315 0014 00000000 		.word	I2CM_customIntrHandler
 316              		.cfi_endproc
 317              	.LFE8:
 318              		.size	I2CM_SetCustomInterruptHandler, .-I2CM_SetCustomInterruptHandler
 319              		.section	.text.I2CM_ScbEnableIntr,"ax",%progbits
 320              		.align	2
 321              		.code	16
 322              		.thumb_func
 323              		.type	I2CM_ScbEnableIntr, %function
 324              	I2CM_ScbEnableIntr:
 325              	.LFB9:
 346:.\Generated_Source\PSoC4/I2CM.c **** #endif /* (I2CM_SCB_IRQ_INTERNAL) */
 347:.\Generated_Source\PSoC4/I2CM.c **** 
 348:.\Generated_Source\PSoC4/I2CM.c **** 
 349:.\Generated_Source\PSoC4/I2CM.c **** /*******************************************************************************
 350:.\Generated_Source\PSoC4/I2CM.c **** * Function Name: I2CM_ScbModeEnableIntr
 351:.\Generated_Source\PSoC4/I2CM.c **** ****************************************************************************//**
 352:.\Generated_Source\PSoC4/I2CM.c **** *
 353:.\Generated_Source\PSoC4/I2CM.c **** *  Enables an interrupt for a specific mode.
 354:.\Generated_Source\PSoC4/I2CM.c **** *
 355:.\Generated_Source\PSoC4/I2CM.c **** *******************************************************************************/
 356:.\Generated_Source\PSoC4/I2CM.c **** static void I2CM_ScbEnableIntr(void)
 357:.\Generated_Source\PSoC4/I2CM.c **** {
 326              		.loc 1 357 0
 327              		.cfi_startproc
ARM GAS  C:\Users\humon\AppData\Local\Temp\ccsYG7Ua.s 			page 13


 328 0000 80B5     		push	{r7, lr}
 329              		.cfi_def_cfa_offset 8
 330              		.cfi_offset 7, -8
 331              		.cfi_offset 14, -4
 332 0002 00AF     		add	r7, sp, #0
 333              		.cfi_def_cfa_register 7
 358:.\Generated_Source\PSoC4/I2CM.c **** #if (I2CM_SCB_IRQ_INTERNAL)
 359:.\Generated_Source\PSoC4/I2CM.c ****     /* Enable interrupt in NVIC */
 360:.\Generated_Source\PSoC4/I2CM.c ****     #if (I2CM_SCB_MODE_UNCONFIG_CONST_CFG)
 361:.\Generated_Source\PSoC4/I2CM.c ****         if (0u != I2CM_scbEnableIntr)
 362:.\Generated_Source\PSoC4/I2CM.c ****         {
 363:.\Generated_Source\PSoC4/I2CM.c ****             I2CM_EnableInt();
 364:.\Generated_Source\PSoC4/I2CM.c ****         }
 365:.\Generated_Source\PSoC4/I2CM.c **** 
 366:.\Generated_Source\PSoC4/I2CM.c ****     #else
 367:.\Generated_Source\PSoC4/I2CM.c ****         I2CM_EnableInt();
 334              		.loc 1 367 0
 335 0004 0A20     		mov	r0, #10
 336 0006 FFF7FEFF 		bl	CyIntEnable
 368:.\Generated_Source\PSoC4/I2CM.c **** 
 369:.\Generated_Source\PSoC4/I2CM.c ****     #endif /* (I2CM_SCB_MODE_UNCONFIG_CONST_CFG) */
 370:.\Generated_Source\PSoC4/I2CM.c **** #endif /* (I2CM_SCB_IRQ_INTERNAL) */
 371:.\Generated_Source\PSoC4/I2CM.c **** }
 337              		.loc 1 371 0
 338 000a BD46     		mov	sp, r7
 339              		@ sp needed
 340 000c 80BD     		pop	{r7, pc}
 341              		.cfi_endproc
 342              	.LFE9:
 343              		.size	I2CM_ScbEnableIntr, .-I2CM_ScbEnableIntr
 344              		.section	.text.I2CM_ScbModePostEnable,"ax",%progbits
 345              		.align	2
 346              		.code	16
 347              		.thumb_func
 348              		.type	I2CM_ScbModePostEnable, %function
 349              	I2CM_ScbModePostEnable:
 350              	.LFB10:
 372:.\Generated_Source\PSoC4/I2CM.c **** 
 373:.\Generated_Source\PSoC4/I2CM.c **** 
 374:.\Generated_Source\PSoC4/I2CM.c **** /*******************************************************************************
 375:.\Generated_Source\PSoC4/I2CM.c **** * Function Name: I2CM_ScbModePostEnable
 376:.\Generated_Source\PSoC4/I2CM.c **** ****************************************************************************//**
 377:.\Generated_Source\PSoC4/I2CM.c **** *
 378:.\Generated_Source\PSoC4/I2CM.c **** *  Calls the PostEnable function for a specific operation mode.
 379:.\Generated_Source\PSoC4/I2CM.c **** *
 380:.\Generated_Source\PSoC4/I2CM.c **** *******************************************************************************/
 381:.\Generated_Source\PSoC4/I2CM.c **** static void I2CM_ScbModePostEnable(void)
 382:.\Generated_Source\PSoC4/I2CM.c **** {
 351              		.loc 1 382 0
 352              		.cfi_startproc
 353 0000 80B5     		push	{r7, lr}
 354              		.cfi_def_cfa_offset 8
 355              		.cfi_offset 7, -8
 356              		.cfi_offset 14, -4
 357 0002 00AF     		add	r7, sp, #0
 358              		.cfi_def_cfa_register 7
 383:.\Generated_Source\PSoC4/I2CM.c **** #if (I2CM_SCB_MODE_UNCONFIG_CONST_CFG)
ARM GAS  C:\Users\humon\AppData\Local\Temp\ccsYG7Ua.s 			page 14


 384:.\Generated_Source\PSoC4/I2CM.c **** #if (!I2CM_CY_SCBIP_V1)
 385:.\Generated_Source\PSoC4/I2CM.c ****     if (I2CM_SCB_MODE_SPI_RUNTM_CFG)
 386:.\Generated_Source\PSoC4/I2CM.c ****     {
 387:.\Generated_Source\PSoC4/I2CM.c ****         I2CM_SpiPostEnable();
 388:.\Generated_Source\PSoC4/I2CM.c ****     }
 389:.\Generated_Source\PSoC4/I2CM.c ****     else if (I2CM_SCB_MODE_UART_RUNTM_CFG)
 390:.\Generated_Source\PSoC4/I2CM.c ****     {
 391:.\Generated_Source\PSoC4/I2CM.c ****         I2CM_UartPostEnable();
 392:.\Generated_Source\PSoC4/I2CM.c ****     }
 393:.\Generated_Source\PSoC4/I2CM.c ****     else
 394:.\Generated_Source\PSoC4/I2CM.c ****     {
 395:.\Generated_Source\PSoC4/I2CM.c ****         /* Unknown mode: do nothing */
 396:.\Generated_Source\PSoC4/I2CM.c ****     }
 397:.\Generated_Source\PSoC4/I2CM.c **** #endif /* (!I2CM_CY_SCBIP_V1) */
 398:.\Generated_Source\PSoC4/I2CM.c **** 
 399:.\Generated_Source\PSoC4/I2CM.c **** #elif (I2CM_SCB_MODE_SPI_CONST_CFG)
 400:.\Generated_Source\PSoC4/I2CM.c ****     I2CM_SpiPostEnable();
 401:.\Generated_Source\PSoC4/I2CM.c **** 
 402:.\Generated_Source\PSoC4/I2CM.c **** #elif (I2CM_SCB_MODE_UART_CONST_CFG)
 403:.\Generated_Source\PSoC4/I2CM.c ****     I2CM_UartPostEnable();
 404:.\Generated_Source\PSoC4/I2CM.c **** 
 405:.\Generated_Source\PSoC4/I2CM.c **** #else
 406:.\Generated_Source\PSoC4/I2CM.c ****     /* Unknown mode: do nothing */
 407:.\Generated_Source\PSoC4/I2CM.c **** #endif /* (I2CM_SCB_MODE_UNCONFIG_CONST_CFG) */
 408:.\Generated_Source\PSoC4/I2CM.c **** }
 359              		.loc 1 408 0
 360 0004 BD46     		mov	sp, r7
 361              		@ sp needed
 362 0006 80BD     		pop	{r7, pc}
 363              		.cfi_endproc
 364              	.LFE10:
 365              		.size	I2CM_ScbModePostEnable, .-I2CM_ScbModePostEnable
 366              		.section	.text.I2CM_ScbModeStop,"ax",%progbits
 367              		.align	2
 368              		.code	16
 369              		.thumb_func
 370              		.type	I2CM_ScbModeStop, %function
 371              	I2CM_ScbModeStop:
 372              	.LFB11:
 409:.\Generated_Source\PSoC4/I2CM.c **** 
 410:.\Generated_Source\PSoC4/I2CM.c **** 
 411:.\Generated_Source\PSoC4/I2CM.c **** /*******************************************************************************
 412:.\Generated_Source\PSoC4/I2CM.c **** * Function Name: I2CM_ScbModeStop
 413:.\Generated_Source\PSoC4/I2CM.c **** ****************************************************************************//**
 414:.\Generated_Source\PSoC4/I2CM.c **** *
 415:.\Generated_Source\PSoC4/I2CM.c **** *  Calls the Stop function for a specific operation mode.
 416:.\Generated_Source\PSoC4/I2CM.c **** *
 417:.\Generated_Source\PSoC4/I2CM.c **** *******************************************************************************/
 418:.\Generated_Source\PSoC4/I2CM.c **** static void I2CM_ScbModeStop(void)
 419:.\Generated_Source\PSoC4/I2CM.c **** {
 373              		.loc 1 419 0
 374              		.cfi_startproc
 375 0000 80B5     		push	{r7, lr}
 376              		.cfi_def_cfa_offset 8
 377              		.cfi_offset 7, -8
 378              		.cfi_offset 14, -4
 379 0002 00AF     		add	r7, sp, #0
ARM GAS  C:\Users\humon\AppData\Local\Temp\ccsYG7Ua.s 			page 15


 380              		.cfi_def_cfa_register 7
 420:.\Generated_Source\PSoC4/I2CM.c **** #if (I2CM_SCB_MODE_UNCONFIG_CONST_CFG)
 421:.\Generated_Source\PSoC4/I2CM.c ****     if (I2CM_SCB_MODE_I2C_RUNTM_CFG)
 422:.\Generated_Source\PSoC4/I2CM.c ****     {
 423:.\Generated_Source\PSoC4/I2CM.c ****         I2CM_I2CStop();
 424:.\Generated_Source\PSoC4/I2CM.c ****     }
 425:.\Generated_Source\PSoC4/I2CM.c ****     else if (I2CM_SCB_MODE_EZI2C_RUNTM_CFG)
 426:.\Generated_Source\PSoC4/I2CM.c ****     {
 427:.\Generated_Source\PSoC4/I2CM.c ****         I2CM_EzI2CStop();
 428:.\Generated_Source\PSoC4/I2CM.c ****     }
 429:.\Generated_Source\PSoC4/I2CM.c **** #if (!I2CM_CY_SCBIP_V1)
 430:.\Generated_Source\PSoC4/I2CM.c ****     else if (I2CM_SCB_MODE_SPI_RUNTM_CFG)
 431:.\Generated_Source\PSoC4/I2CM.c ****     {
 432:.\Generated_Source\PSoC4/I2CM.c ****         I2CM_SpiStop();
 433:.\Generated_Source\PSoC4/I2CM.c ****     }
 434:.\Generated_Source\PSoC4/I2CM.c ****     else if (I2CM_SCB_MODE_UART_RUNTM_CFG)
 435:.\Generated_Source\PSoC4/I2CM.c ****     {
 436:.\Generated_Source\PSoC4/I2CM.c ****         I2CM_UartStop();
 437:.\Generated_Source\PSoC4/I2CM.c ****     }
 438:.\Generated_Source\PSoC4/I2CM.c **** #endif /* (!I2CM_CY_SCBIP_V1) */
 439:.\Generated_Source\PSoC4/I2CM.c ****     else
 440:.\Generated_Source\PSoC4/I2CM.c ****     {
 441:.\Generated_Source\PSoC4/I2CM.c ****         /* Unknown mode: do nothing */
 442:.\Generated_Source\PSoC4/I2CM.c ****     }
 443:.\Generated_Source\PSoC4/I2CM.c **** #elif (I2CM_SCB_MODE_I2C_CONST_CFG)
 444:.\Generated_Source\PSoC4/I2CM.c ****     I2CM_I2CStop();
 381              		.loc 1 444 0
 382 0004 FFF7FEFF 		bl	I2CM_I2CStop
 445:.\Generated_Source\PSoC4/I2CM.c **** 
 446:.\Generated_Source\PSoC4/I2CM.c **** #elif (I2CM_SCB_MODE_EZI2C_CONST_CFG)
 447:.\Generated_Source\PSoC4/I2CM.c ****     I2CM_EzI2CStop();
 448:.\Generated_Source\PSoC4/I2CM.c **** 
 449:.\Generated_Source\PSoC4/I2CM.c **** #elif (I2CM_SCB_MODE_SPI_CONST_CFG)
 450:.\Generated_Source\PSoC4/I2CM.c ****     I2CM_SpiStop();
 451:.\Generated_Source\PSoC4/I2CM.c **** 
 452:.\Generated_Source\PSoC4/I2CM.c **** #elif (I2CM_SCB_MODE_UART_CONST_CFG)
 453:.\Generated_Source\PSoC4/I2CM.c ****     I2CM_UartStop();
 454:.\Generated_Source\PSoC4/I2CM.c **** 
 455:.\Generated_Source\PSoC4/I2CM.c **** #else
 456:.\Generated_Source\PSoC4/I2CM.c ****     /* Unknown mode: do nothing */
 457:.\Generated_Source\PSoC4/I2CM.c **** #endif /* (I2CM_SCB_MODE_UNCONFIG_CONST_CFG) */
 458:.\Generated_Source\PSoC4/I2CM.c **** }
 383              		.loc 1 458 0
 384 0008 BD46     		mov	sp, r7
 385              		@ sp needed
 386 000a 80BD     		pop	{r7, pc}
 387              		.cfi_endproc
 388              	.LFE11:
 389              		.size	I2CM_ScbModeStop, .-I2CM_ScbModeStop
 390              		.text
 391              	.Letext0:
 392              		.file 2 "Generated_Source\\PSoC4/cytypes.h"