ARM GAS  C:\Users\humon\AppData\Local\Temp\ccSIv7pe.s 			page 1


   1              		.cpu cortex-m0
   2              		.fpu softvfp
   3              		.eabi_attribute 20, 1
   4              		.eabi_attribute 21, 1
   5              		.eabi_attribute 23, 3
   6              		.eabi_attribute 24, 1
   7              		.eabi_attribute 25, 1
   8              		.eabi_attribute 26, 1
   9              		.eabi_attribute 30, 6
  10              		.eabi_attribute 34, 0
  11              		.eabi_attribute 18, 4
  12              		.code	16
  13              		.file	"LED.c"
  14              		.text
  15              	.Ltext0:
  16              		.cfi_sections	.debug_frame
  17              		.comm	led_array,40,4
  18              		.comm	RGB_led_array,60,4
  19              		.comm	led_pattern,1,1
  20              		.section	.text.LED_initialize,"ax",%progbits
  21              		.align	2
  22              		.global	LED_initialize
  23              		.code	16
  24              		.thumb_func
  25              		.type	LED_initialize, %function
  26              	LED_initialize:
  27              	.LFB37:
  28              		.file 1 ".\\LED.c"
   1:.\LED.c       **** /* ========================================
   2:.\LED.c       ****  *
   3:.\LED.c       ****  * Copyright Humon, 2016
   4:.\LED.c       ****  * All Rights Reserved
   5:.\LED.c       ****  * UNPUBLISHED, LICENSED SOFTWARE.
   6:.\LED.c       ****  *
   7:.\LED.c       ****  * CONFIDENTIAL AND PROPRIETARY INFORMATION
   8:.\LED.c       ****  * WHICH IS THE PROPERTY OF Humon.
   9:.\LED.c       ****  *
  10:.\LED.c       ****  * ========================================
  11:.\LED.c       **** */
  12:.\LED.c       **** #include <LED.h>
  13:.\LED.c       **** 
  14:.\LED.c       **** // This function initializes the LED driver
  15:.\LED.c       **** void LED_initialize() {
  29              		.loc 1 15 0
  30              		.cfi_startproc
  31 0000 80B5     		push	{r7, lr}
  32              		.cfi_def_cfa_offset 8
  33              		.cfi_offset 7, -8
  34              		.cfi_offset 14, -4
  35 0002 88B0     		sub	sp, sp, #32
  36              		.cfi_def_cfa_offset 40
  37 0004 00AF     		add	r7, sp, #0
  38              		.cfi_def_cfa_register 7
  16:.\LED.c       ****     uint8 sbuf[2];
  17:.\LED.c       ****     sbuf[0] = 0x04;
  39              		.loc 1 17 0
  40 0006 1423     		mov	r3, #20
ARM GAS  C:\Users\humon\AppData\Local\Temp\ccSIv7pe.s 			page 2


  41 0008 FB18     		add	r3, r7, r3
  42 000a 0422     		mov	r2, #4
  43 000c 1A70     		strb	r2, [r3]
  18:.\LED.c       ****     sbuf[1] = 0x41;
  44              		.loc 1 18 0
  45 000e 1423     		mov	r3, #20
  46 0010 FB18     		add	r3, r7, r3
  47 0012 4122     		mov	r2, #65
  48 0014 5A70     		strb	r2, [r3, #1]
  19:.\LED.c       ****     //M = 0: No transition detection, I = 1: individual currents, S = 1: shutdown mode off
  20:.\LED.c       ****    
  21:.\LED.c       ****     I2C_write(LED_SLAVE_ADDRESS, sbuf, 2);
  49              		.loc 1 21 0
  50 0016 1423     		mov	r3, #20
  51 0018 FB18     		add	r3, r7, r3
  52 001a 4420     		mov	r0, #68
  53 001c 191C     		mov	r1, r3
  54 001e 0222     		mov	r2, #2
  55 0020 FFF7FEFF 		bl	I2C_write
  22:.\LED.c       **** 
  23:.\LED.c       ****     uint8 wbuf[8];
  24:.\LED.c       ****     wbuf[0] = 0x09; // Select portd 12 - 15
  56              		.loc 1 24 0
  57 0024 0C23     		mov	r3, #12
  58 0026 FB18     		add	r3, r7, r3
  59 0028 0922     		mov	r2, #9
  60 002a 1A70     		strb	r2, [r3]
  25:.\LED.c       ****     wbuf[1] = 0x55; // Set ports 4 - 7, not connected, set as G{OP output to save power and autoinc
  61              		.loc 1 25 0
  62 002c 0C23     		mov	r3, #12
  63 002e FB18     		add	r3, r7, r3
  64 0030 5522     		mov	r2, #85
  65 0032 5A70     		strb	r2, [r3, #1]
  26:.\LED.c       ****     wbuf[2] = 0x55; // Set ports 8 - 11, not connected, set as G{OP output to save power and autoin
  66              		.loc 1 26 0
  67 0034 0C23     		mov	r3, #12
  68 0036 FB18     		add	r3, r7, r3
  69 0038 5522     		mov	r2, #85
  70 003a 9A70     		strb	r2, [r3, #2]
  27:.\LED.c       ****     wbuf[3] = 0x00; // Set ports 12 - 15 as LED drivers and auto-increment (next 4 bytes: set P12-P
  71              		.loc 1 27 0
  72 003c 0C23     		mov	r3, #12
  73 003e FB18     		add	r3, r7, r3
  74 0040 0022     		mov	r2, #0
  75 0042 DA70     		strb	r2, [r3, #3]
  28:.\LED.c       ****     wbuf[4] = 0x00; // Set ports 16 - 19 as LED drivers and auto-increment
  76              		.loc 1 28 0
  77 0044 0C23     		mov	r3, #12
  78 0046 FB18     		add	r3, r7, r3
  79 0048 0022     		mov	r2, #0
  80 004a 1A71     		strb	r2, [r3, #4]
  29:.\LED.c       ****     wbuf[5] = 0x00; // Set ports 20 - 23 as LED drivers and auto-increment
  81              		.loc 1 29 0
  82 004c 0C23     		mov	r3, #12
  83 004e FB18     		add	r3, r7, r3
  84 0050 0022     		mov	r2, #0
  85 0052 5A71     		strb	r2, [r3, #5]
ARM GAS  C:\Users\humon\AppData\Local\Temp\ccSIv7pe.s 			page 3


  30:.\LED.c       ****     wbuf[6] = 0x00; // Set ports 24 - 27 as LED drivers and auto-increment
  86              		.loc 1 30 0
  87 0054 0C23     		mov	r3, #12
  88 0056 FB18     		add	r3, r7, r3
  89 0058 0022     		mov	r2, #0
  90 005a 9A71     		strb	r2, [r3, #6]
  31:.\LED.c       ****     wbuf[7] = 0xFF; // Set ports 28 - 31 as LED drivers and auto-increment (as input with pullup)
  91              		.loc 1 31 0
  92 005c 0C23     		mov	r3, #12
  93 005e FB18     		add	r3, r7, r3
  94 0060 FF22     		mov	r2, #255
  95 0062 DA71     		strb	r2, [r3, #7]
  32:.\LED.c       **** 
  33:.\LED.c       ****     I2C_write(LED_SLAVE_ADDRESS, wbuf, 8);
  96              		.loc 1 33 0
  97 0064 0C23     		mov	r3, #12
  98 0066 FB18     		add	r3, r7, r3
  99 0068 4420     		mov	r0, #68
 100 006a 191C     		mov	r1, r3
 101 006c 0822     		mov	r2, #8
 102 006e FFF7FEFF 		bl	I2C_write
  34:.\LED.c       ****     
  35:.\LED.c       ****     int ctr = 0;
 103              		.loc 1 35 0
 104 0072 0023     		mov	r3, #0
 105 0074 FB61     		str	r3, [r7, #28]
  36:.\LED.c       ****     // Turn LEDs off
  37:.\LED.c       ****     for(ctr = 0; ctr < 13; ctr++) {
 106              		.loc 1 37 0
 107 0076 0023     		mov	r3, #0
 108 0078 FB61     		str	r3, [r7, #28]
 109 007a 14E0     		b	.L2
 110              	.L3:
 111              	.LBB2:
  38:.\LED.c       ****         uint8 onBuf[2];
  39:.\LED.c       ****         onBuf[0] = P12_REG + ctr;   //address of individual output pins
 112              		.loc 1 39 0 discriminator 3
 113 007c FB69     		ldr	r3, [r7, #28]
 114 007e DBB2     		uxtb	r3, r3
 115 0080 2C33     		add	r3, r3, #44
 116 0082 DAB2     		uxtb	r2, r3
 117 0084 0823     		mov	r3, #8
 118 0086 FB18     		add	r3, r7, r3
 119 0088 1A70     		strb	r2, [r3]
  40:.\LED.c       ****         onBuf[1] = OFF; 
 120              		.loc 1 40 0 discriminator 3
 121 008a 0823     		mov	r3, #8
 122 008c FB18     		add	r3, r7, r3
 123 008e 0022     		mov	r2, #0
 124 0090 5A70     		strb	r2, [r3, #1]
  41:.\LED.c       ****         // only D0 bit is used, other bits are ignored: 1=on, 0=off
  42:.\LED.c       ****         I2C_write(LED_SLAVE_ADDRESS, onBuf, 2);
 125              		.loc 1 42 0 discriminator 3
 126 0092 0823     		mov	r3, #8
 127 0094 FB18     		add	r3, r7, r3
 128 0096 4420     		mov	r0, #68
 129 0098 191C     		mov	r1, r3
ARM GAS  C:\Users\humon\AppData\Local\Temp\ccSIv7pe.s 			page 4


 130 009a 0222     		mov	r2, #2
 131 009c FFF7FEFF 		bl	I2C_write
 132              	.LBE2:
  37:.\LED.c       ****         uint8 onBuf[2];
 133              		.loc 1 37 0 discriminator 3
 134 00a0 FB69     		ldr	r3, [r7, #28]
 135 00a2 0133     		add	r3, r3, #1
 136 00a4 FB61     		str	r3, [r7, #28]
 137              	.L2:
  37:.\LED.c       ****         uint8 onBuf[2];
 138              		.loc 1 37 0 is_stmt 0 discriminator 1
 139 00a6 FB69     		ldr	r3, [r7, #28]
 140 00a8 0C2B     		cmp	r3, #12
 141 00aa E7DD     		ble	.L3
  43:.\LED.c       ****     }
  44:.\LED.c       ****     
  45:.\LED.c       ****     // Set individual current registers for LEDs (Table 11, Table 12): ALL DIM
  46:.\LED.c       ****     int i = 0;
 142              		.loc 1 46 0 is_stmt 1
 143 00ac 0023     		mov	r3, #0
 144 00ae BB61     		str	r3, [r7, #24]
  47:.\LED.c       ****     // TODO: Take a look at datasheet to figure out what is going on
  48:.\LED.c       ****     // Change to i = 0 and i < 13
  49:.\LED.c       ****     // Used to be i = 1 and i < 14
  50:.\LED.c       ****     for (i = 0; i < 13; i++) {
 145              		.loc 1 50 0
 146 00b0 0023     		mov	r3, #0
 147 00b2 BB61     		str	r3, [r7, #24]
 148 00b4 11E0     		b	.L4
 149              	.L5:
 150              	.LBB3:
  51:.\LED.c       ****         uint8 currentBuf[2];
  52:.\LED.c       ****         currentBuf[0] = 0x12 + i;
 151              		.loc 1 52 0 discriminator 3
 152 00b6 BB69     		ldr	r3, [r7, #24]
 153 00b8 DBB2     		uxtb	r3, r3
 154 00ba 1233     		add	r3, r3, #18
 155 00bc DAB2     		uxtb	r2, r3
 156 00be 3B1D     		add	r3, r7, #4
 157 00c0 1A70     		strb	r2, [r3]
  53:.\LED.c       ****         currentBuf[1] = 0x00;
 158              		.loc 1 53 0 discriminator 3
 159 00c2 3B1D     		add	r3, r7, #4
 160 00c4 0022     		mov	r2, #0
 161 00c6 5A70     		strb	r2, [r3, #1]
  54:.\LED.c       ****         I2C_write(LED_SLAVE_ADDRESS, currentBuf, 2);
 162              		.loc 1 54 0 discriminator 3
 163 00c8 3B1D     		add	r3, r7, #4
 164 00ca 4420     		mov	r0, #68
 165 00cc 191C     		mov	r1, r3
 166 00ce 0222     		mov	r2, #2
 167 00d0 FFF7FEFF 		bl	I2C_write
 168              	.LBE3:
  50:.\LED.c       ****         uint8 currentBuf[2];
 169              		.loc 1 50 0 discriminator 3
 170 00d4 BB69     		ldr	r3, [r7, #24]
 171 00d6 0133     		add	r3, r3, #1
ARM GAS  C:\Users\humon\AppData\Local\Temp\ccSIv7pe.s 			page 5


 172 00d8 BB61     		str	r3, [r7, #24]
 173              	.L4:
  50:.\LED.c       ****         uint8 currentBuf[2];
 174              		.loc 1 50 0 is_stmt 0 discriminator 1
 175 00da BB69     		ldr	r3, [r7, #24]
 176 00dc 0C2B     		cmp	r3, #12
 177 00de EADD     		ble	.L5
  55:.\LED.c       ****     } 
  56:.\LED.c       ****     // Initialize LED Parameters
  57:.\LED.c       ****     LED_init_params();
 178              		.loc 1 57 0 is_stmt 1
 179 00e0 FFF7FEFF 		bl	LED_init_params
  58:.\LED.c       ****     led_pattern = 0;
 180              		.loc 1 58 0
 181 00e4 024B     		ldr	r3, .L6
 182 00e6 0022     		mov	r2, #0
 183 00e8 1A70     		strb	r2, [r3]
  59:.\LED.c       **** }
 184              		.loc 1 59 0
 185 00ea BD46     		mov	sp, r7
 186 00ec 08B0     		add	sp, sp, #32
 187              		@ sp needed
 188 00ee 80BD     		pop	{r7, pc}
 189              	.L7:
 190              		.align	2
 191              	.L6:
 192 00f0 00000000 		.word	led_pattern
 193              		.cfi_endproc
 194              	.LFE37:
 195              		.size	LED_initialize, .-LED_initialize
 196              		.section	.text.LED_set_brightness,"ax",%progbits
 197              		.align	2
 198              		.global	LED_set_brightness
 199              		.code	16
 200              		.thumb_func
 201              		.type	LED_set_brightness, %function
 202              	LED_set_brightness:
 203              	.LFB38:
  60:.\LED.c       **** 
  61:.\LED.c       **** // Set LED Brightness
  62:.\LED.c       **** void LED_set_brightness(uint8 led_num, uint8 brightness) {
 204              		.loc 1 62 0
 205              		.cfi_startproc
 206 0000 80B5     		push	{r7, lr}
 207              		.cfi_def_cfa_offset 8
 208              		.cfi_offset 7, -8
 209              		.cfi_offset 14, -4
 210 0002 84B0     		sub	sp, sp, #16
 211              		.cfi_def_cfa_offset 24
 212 0004 00AF     		add	r7, sp, #0
 213              		.cfi_def_cfa_register 7
 214 0006 021C     		mov	r2, r0
 215 0008 FB1D     		add	r3, r7, #7
 216 000a 1A70     		strb	r2, [r3]
 217 000c BB1D     		add	r3, r7, #6
 218 000e 0A1C     		add	r2, r1, #0
 219 0010 1A70     		strb	r2, [r3]
ARM GAS  C:\Users\humon\AppData\Local\Temp\ccSIv7pe.s 			page 6


  63:.\LED.c       ****     led_array[led_num].brightness = brightness;
 220              		.loc 1 63 0
 221 0012 FB1D     		add	r3, r7, #7
 222 0014 1A78     		ldrb	r2, [r3]
 223 0016 1349     		ldr	r1, .L9
 224 0018 131C     		mov	r3, r2
 225 001a 9B00     		lsl	r3, r3, #2
 226 001c 9B18     		add	r3, r3, r2
 227 001e 9B00     		lsl	r3, r3, #2
 228 0020 CB18     		add	r3, r1, r3
 229 0022 0833     		add	r3, r3, #8
 230 0024 BA1D     		add	r2, r7, #6
 231 0026 1278     		ldrb	r2, [r2]
 232 0028 9A71     		strb	r2, [r3, #6]
  64:.\LED.c       ****     uint8 cmd[2];
  65:.\LED.c       ****     cmd[0] = led_array[led_num].current_reg;
 233              		.loc 1 65 0
 234 002a FB1D     		add	r3, r7, #7
 235 002c 1A78     		ldrb	r2, [r3]
 236 002e 0D49     		ldr	r1, .L9
 237 0030 131C     		mov	r3, r2
 238 0032 9B00     		lsl	r3, r3, #2
 239 0034 9B18     		add	r3, r3, r2
 240 0036 9B00     		lsl	r3, r3, #2
 241 0038 CB18     		add	r3, r1, r3
 242 003a 0833     		add	r3, r3, #8
 243 003c 1A79     		ldrb	r2, [r3, #4]
 244 003e 0C23     		mov	r3, #12
 245 0040 FB18     		add	r3, r7, r3
 246 0042 1A70     		strb	r2, [r3]
  66:.\LED.c       ****     cmd[1] = brightness;
 247              		.loc 1 66 0
 248 0044 0C23     		mov	r3, #12
 249 0046 FB18     		add	r3, r7, r3
 250 0048 BA1D     		add	r2, r7, #6
 251 004a 1278     		ldrb	r2, [r2]
 252 004c 5A70     		strb	r2, [r3, #1]
  67:.\LED.c       ****     I2C_write(LED_SLAVE_ADDRESS, cmd, 2);
 253              		.loc 1 67 0
 254 004e 0C23     		mov	r3, #12
 255 0050 FB18     		add	r3, r7, r3
 256 0052 4420     		mov	r0, #68
 257 0054 191C     		mov	r1, r3
 258 0056 0222     		mov	r2, #2
 259 0058 FFF7FEFF 		bl	I2C_write
  68:.\LED.c       **** }
 260              		.loc 1 68 0
 261 005c BD46     		mov	sp, r7
 262 005e 04B0     		add	sp, sp, #16
 263              		@ sp needed
 264 0060 80BD     		pop	{r7, pc}
 265              	.L10:
 266 0062 C046     		.align	2
 267              	.L9:
 268 0064 00000000 		.word	led_array
 269              		.cfi_endproc
 270              	.LFE38:
ARM GAS  C:\Users\humon\AppData\Local\Temp\ccSIv7pe.s 			page 7


 271              		.size	LED_set_brightness, .-LED_set_brightness
 272              		.section	.text.LED_RGB_set_brightness,"ax",%progbits
 273              		.align	2
 274              		.global	LED_RGB_set_brightness
 275              		.code	16
 276              		.thumb_func
 277              		.type	LED_RGB_set_brightness, %function
 278              	LED_RGB_set_brightness:
 279              	.LFB39:
  69:.\LED.c       **** 
  70:.\LED.c       **** // Set RGB LED brightness
  71:.\LED.c       **** void LED_RGB_set_brightness(uint8 led_num, uint8 brightness) {
 280              		.loc 1 71 0
 281              		.cfi_startproc
 282 0000 80B5     		push	{r7, lr}
 283              		.cfi_def_cfa_offset 8
 284              		.cfi_offset 7, -8
 285              		.cfi_offset 14, -4
 286 0002 84B0     		sub	sp, sp, #16
 287              		.cfi_def_cfa_offset 24
 288 0004 00AF     		add	r7, sp, #0
 289              		.cfi_def_cfa_register 7
 290 0006 021C     		mov	r2, r0
 291 0008 FB1D     		add	r3, r7, #7
 292 000a 1A70     		strb	r2, [r3]
 293 000c BB1D     		add	r3, r7, #6
 294 000e 0A1C     		add	r2, r1, #0
 295 0010 1A70     		strb	r2, [r3]
  72:.\LED.c       ****     uint8 led_num_pair = RGB_led_array[led_num].led_num_pair;
 296              		.loc 1 72 0
 297 0012 FB1D     		add	r3, r7, #7
 298 0014 1A78     		ldrb	r2, [r3]
 299 0016 0E23     		mov	r3, #14
 300 0018 F918     		add	r1, r7, r3
 301 001a 3F48     		ldr	r0, .L14
 302 001c 131C     		mov	r3, r2
 303 001e 9B00     		lsl	r3, r3, #2
 304 0020 9B18     		add	r3, r3, r2
 305 0022 9B00     		lsl	r3, r3, #2
 306 0024 C318     		add	r3, r0, r3
 307 0026 5B78     		ldrb	r3, [r3, #1]
 308 0028 0B70     		strb	r3, [r1]
  73:.\LED.c       ****     uint8 brightness_hex;
  74:.\LED.c       ****     uint8 led_current_digit;
  75:.\LED.c       ****   
  76:.\LED.c       ****     if(led_num_pair == 0){
 309              		.loc 1 76 0
 310 002a 0E23     		mov	r3, #14
 311 002c FB18     		add	r3, r7, r3
 312 002e 1B78     		ldrb	r3, [r3]
 313 0030 002B     		cmp	r3, #0
 314 0032 23D1     		bne	.L12
  77:.\LED.c       ****         led_current_digit = RGB_led_array[led_num].current_digit;
 315              		.loc 1 77 0
 316 0034 FB1D     		add	r3, r7, #7
 317 0036 1A78     		ldrb	r2, [r3]
 318 0038 0D23     		mov	r3, #13
ARM GAS  C:\Users\humon\AppData\Local\Temp\ccSIv7pe.s 			page 8


 319 003a F918     		add	r1, r7, r3
 320 003c 3648     		ldr	r0, .L14
 321 003e 131C     		mov	r3, r2
 322 0040 9B00     		lsl	r3, r3, #2
 323 0042 9B18     		add	r3, r3, r2
 324 0044 9B00     		lsl	r3, r3, #2
 325 0046 C318     		add	r3, r0, r3
 326 0048 0833     		add	r3, r3, #8
 327 004a 5B79     		ldrb	r3, [r3, #5]
 328 004c 0B70     		strb	r3, [r1]
  78:.\LED.c       ****         brightness_hex = led_current_digit * brightness;
 329              		.loc 1 78 0
 330 004e 0F23     		mov	r3, #15
 331 0050 FB18     		add	r3, r7, r3
 332 0052 0D22     		mov	r2, #13
 333 0054 BA18     		add	r2, r7, r2
 334 0056 B91D     		add	r1, r7, #6
 335 0058 1278     		ldrb	r2, [r2]
 336 005a 0978     		ldrb	r1, [r1]
 337 005c 4A43     		mul	r2, r1
 338 005e 1A70     		strb	r2, [r3]
  79:.\LED.c       ****         RGB_led_array[led_num].brightness = brightness_hex;
 339              		.loc 1 79 0
 340 0060 FB1D     		add	r3, r7, #7
 341 0062 1A78     		ldrb	r2, [r3]
 342 0064 2C49     		ldr	r1, .L14
 343 0066 131C     		mov	r3, r2
 344 0068 9B00     		lsl	r3, r3, #2
 345 006a 9B18     		add	r3, r3, r2
 346 006c 9B00     		lsl	r3, r3, #2
 347 006e CB18     		add	r3, r1, r3
 348 0070 0833     		add	r3, r3, #8
 349 0072 0F22     		mov	r2, #15
 350 0074 BA18     		add	r2, r7, r2
 351 0076 1278     		ldrb	r2, [r2]
 352 0078 9A71     		strb	r2, [r3, #6]
 353 007a 2FE0     		b	.L13
 354              	.L12:
  80:.\LED.c       ****     } else {
  81:.\LED.c       ****         led_current_digit = RGB_led_array[led_num].current_digit;
 355              		.loc 1 81 0
 356 007c FB1D     		add	r3, r7, #7
 357 007e 1A78     		ldrb	r2, [r3]
 358 0080 0D23     		mov	r3, #13
 359 0082 F918     		add	r1, r7, r3
 360 0084 2448     		ldr	r0, .L14
 361 0086 131C     		mov	r3, r2
 362 0088 9B00     		lsl	r3, r3, #2
 363 008a 9B18     		add	r3, r3, r2
 364 008c 9B00     		lsl	r3, r3, #2
 365 008e C318     		add	r3, r0, r3
 366 0090 0833     		add	r3, r3, #8
 367 0092 5B79     		ldrb	r3, [r3, #5]
 368 0094 0B70     		strb	r3, [r1]
  82:.\LED.c       ****         brightness_hex = led_current_digit * brightness + RGB_led_array[led_num_pair].brightness;
 369              		.loc 1 82 0
 370 0096 0D23     		mov	r3, #13
ARM GAS  C:\Users\humon\AppData\Local\Temp\ccSIv7pe.s 			page 9


 371 0098 FB18     		add	r3, r7, r3
 372 009a BA1D     		add	r2, r7, #6
 373 009c 1B78     		ldrb	r3, [r3]
 374 009e 1278     		ldrb	r2, [r2]
 375 00a0 5343     		mul	r3, r2
 376 00a2 D9B2     		uxtb	r1, r3
 377 00a4 0E23     		mov	r3, #14
 378 00a6 FB18     		add	r3, r7, r3
 379 00a8 1A78     		ldrb	r2, [r3]
 380 00aa 1B48     		ldr	r0, .L14
 381 00ac 131C     		mov	r3, r2
 382 00ae 9B00     		lsl	r3, r3, #2
 383 00b0 9B18     		add	r3, r3, r2
 384 00b2 9B00     		lsl	r3, r3, #2
 385 00b4 C318     		add	r3, r0, r3
 386 00b6 0833     		add	r3, r3, #8
 387 00b8 9A79     		ldrb	r2, [r3, #6]
 388 00ba 0F23     		mov	r3, #15
 389 00bc FB18     		add	r3, r7, r3
 390 00be 8A18     		add	r2, r1, r2
 391 00c0 1A70     		strb	r2, [r3]
  83:.\LED.c       ****         RGB_led_array[led_num].brightness = brightness_hex;
 392              		.loc 1 83 0
 393 00c2 FB1D     		add	r3, r7, #7
 394 00c4 1A78     		ldrb	r2, [r3]
 395 00c6 1449     		ldr	r1, .L14
 396 00c8 131C     		mov	r3, r2
 397 00ca 9B00     		lsl	r3, r3, #2
 398 00cc 9B18     		add	r3, r3, r2
 399 00ce 9B00     		lsl	r3, r3, #2
 400 00d0 CB18     		add	r3, r1, r3
 401 00d2 0833     		add	r3, r3, #8
 402 00d4 0F22     		mov	r2, #15
 403 00d6 BA18     		add	r2, r7, r2
 404 00d8 1278     		ldrb	r2, [r2]
 405 00da 9A71     		strb	r2, [r3, #6]
 406              	.L13:
  84:.\LED.c       ****     }
  85:.\LED.c       ****     uint8 cmd[2];
  86:.\LED.c       ****     cmd[0] = RGB_led_array[led_num].current_reg;
 407              		.loc 1 86 0
 408 00dc FB1D     		add	r3, r7, #7
 409 00de 1A78     		ldrb	r2, [r3]
 410 00e0 0D49     		ldr	r1, .L14
 411 00e2 131C     		mov	r3, r2
 412 00e4 9B00     		lsl	r3, r3, #2
 413 00e6 9B18     		add	r3, r3, r2
 414 00e8 9B00     		lsl	r3, r3, #2
 415 00ea CB18     		add	r3, r1, r3
 416 00ec 0833     		add	r3, r3, #8
 417 00ee 1A79     		ldrb	r2, [r3, #4]
 418 00f0 0823     		mov	r3, #8
 419 00f2 FB18     		add	r3, r7, r3
 420 00f4 1A70     		strb	r2, [r3]
  87:.\LED.c       ****     cmd[1] = brightness_hex;
 421              		.loc 1 87 0
 422 00f6 0823     		mov	r3, #8
ARM GAS  C:\Users\humon\AppData\Local\Temp\ccSIv7pe.s 			page 10


 423 00f8 FB18     		add	r3, r7, r3
 424 00fa 0F22     		mov	r2, #15
 425 00fc BA18     		add	r2, r7, r2
 426 00fe 1278     		ldrb	r2, [r2]
 427 0100 5A70     		strb	r2, [r3, #1]
  88:.\LED.c       ****     
  89:.\LED.c       ****     I2C_write(LED_SLAVE_ADDRESS, cmd, 2);
 428              		.loc 1 89 0
 429 0102 0823     		mov	r3, #8
 430 0104 FB18     		add	r3, r7, r3
 431 0106 4420     		mov	r0, #68
 432 0108 191C     		mov	r1, r3
 433 010a 0222     		mov	r2, #2
 434 010c FFF7FEFF 		bl	I2C_write
  90:.\LED.c       **** }
 435              		.loc 1 90 0
 436 0110 BD46     		mov	sp, r7
 437 0112 04B0     		add	sp, sp, #16
 438              		@ sp needed
 439 0114 80BD     		pop	{r7, pc}
 440              	.L15:
 441 0116 C046     		.align	2
 442              	.L14:
 443 0118 00000000 		.word	RGB_led_array
 444              		.cfi_endproc
 445              	.LFE39:
 446              		.size	LED_RGB_set_brightness, .-LED_RGB_set_brightness
 447              		.section	.text.LED_RGB_set_state,"ax",%progbits
 448              		.align	2
 449              		.global	LED_RGB_set_state
 450              		.code	16
 451              		.thumb_func
 452              		.type	LED_RGB_set_state, %function
 453              	LED_RGB_set_state:
 454              	.LFB40:
  91:.\LED.c       **** 
  92:.\LED.c       **** // Set the state of the RGB LEDs
  93:.\LED.c       **** void LED_RGB_set_state(uint8 led_num, uint8 led_state) {
 455              		.loc 1 93 0
 456              		.cfi_startproc
 457 0000 80B5     		push	{r7, lr}
 458              		.cfi_def_cfa_offset 8
 459              		.cfi_offset 7, -8
 460              		.cfi_offset 14, -4
 461 0002 84B0     		sub	sp, sp, #16
 462              		.cfi_def_cfa_offset 24
 463 0004 00AF     		add	r7, sp, #0
 464              		.cfi_def_cfa_register 7
 465 0006 021C     		mov	r2, r0
 466 0008 FB1D     		add	r3, r7, #7
 467 000a 1A70     		strb	r2, [r3]
 468 000c BB1D     		add	r3, r7, #6
 469 000e 0A1C     		add	r2, r1, #0
 470 0010 1A70     		strb	r2, [r3]
  94:.\LED.c       ****     uint8 cmd[2];
  95:.\LED.c       ****     cmd[0] = RGB_led_array[led_num].led_reg;
 471              		.loc 1 95 0
ARM GAS  C:\Users\humon\AppData\Local\Temp\ccSIv7pe.s 			page 11


 472 0012 FB1D     		add	r3, r7, #7
 473 0014 1A78     		ldrb	r2, [r3]
 474 0016 1349     		ldr	r1, .L17
 475 0018 131C     		mov	r3, r2
 476 001a 9B00     		lsl	r3, r3, #2
 477 001c 9B18     		add	r3, r3, r2
 478 001e 9B00     		lsl	r3, r3, #2
 479 0020 CB18     		add	r3, r1, r3
 480 0022 0833     		add	r3, r3, #8
 481 0024 9A78     		ldrb	r2, [r3, #2]
 482 0026 0C23     		mov	r3, #12
 483 0028 FB18     		add	r3, r7, r3
 484 002a 1A70     		strb	r2, [r3]
  96:.\LED.c       ****     cmd[1] = led_state;
 485              		.loc 1 96 0
 486 002c 0C23     		mov	r3, #12
 487 002e FB18     		add	r3, r7, r3
 488 0030 BA1D     		add	r2, r7, #6
 489 0032 1278     		ldrb	r2, [r2]
 490 0034 5A70     		strb	r2, [r3, #1]
  97:.\LED.c       ****     I2C_write(LED_SLAVE_ADDRESS, cmd, 2);
 491              		.loc 1 97 0
 492 0036 0C23     		mov	r3, #12
 493 0038 FB18     		add	r3, r7, r3
 494 003a 4420     		mov	r0, #68
 495 003c 191C     		mov	r1, r3
 496 003e 0222     		mov	r2, #2
 497 0040 FFF7FEFF 		bl	I2C_write
  98:.\LED.c       ****     RGB_led_array[led_num].led_state = led_state;
 498              		.loc 1 98 0
 499 0044 FB1D     		add	r3, r7, #7
 500 0046 1A78     		ldrb	r2, [r3]
 501 0048 0649     		ldr	r1, .L17
 502 004a 131C     		mov	r3, r2
 503 004c 9B00     		lsl	r3, r3, #2
 504 004e 9B18     		add	r3, r3, r2
 505 0050 9B00     		lsl	r3, r3, #2
 506 0052 CB18     		add	r3, r1, r3
 507 0054 0833     		add	r3, r3, #8
 508 0056 BA1D     		add	r2, r7, #6
 509 0058 1278     		ldrb	r2, [r2]
 510 005a DA71     		strb	r2, [r3, #7]
  99:.\LED.c       **** }
 511              		.loc 1 99 0
 512 005c BD46     		mov	sp, r7
 513 005e 04B0     		add	sp, sp, #16
 514              		@ sp needed
 515 0060 80BD     		pop	{r7, pc}
 516              	.L18:
 517 0062 C046     		.align	2
 518              	.L17:
 519 0064 00000000 		.word	RGB_led_array
 520              		.cfi_endproc
 521              	.LFE40:
 522              		.size	LED_RGB_set_state, .-LED_RGB_set_state
 523              		.section	.text.LED_get_current_pattern,"ax",%progbits
 524              		.align	2
ARM GAS  C:\Users\humon\AppData\Local\Temp\ccSIv7pe.s 			page 12


 525              		.global	LED_get_current_pattern
 526              		.code	16
 527              		.thumb_func
 528              		.type	LED_get_current_pattern, %function
 529              	LED_get_current_pattern:
 530              	.LFB41:
 100:.\LED.c       **** 
 101:.\LED.c       **** // Get the current LED pattern
 102:.\LED.c       **** uint8 LED_get_current_pattern() {
 531              		.loc 1 102 0
 532              		.cfi_startproc
 533 0000 80B5     		push	{r7, lr}
 534              		.cfi_def_cfa_offset 8
 535              		.cfi_offset 7, -8
 536              		.cfi_offset 14, -4
 537 0002 00AF     		add	r7, sp, #0
 538              		.cfi_def_cfa_register 7
 103:.\LED.c       ****   return led_pattern;
 539              		.loc 1 103 0
 540 0004 024B     		ldr	r3, .L21
 541 0006 1B78     		ldrb	r3, [r3]
 104:.\LED.c       **** }
 542              		.loc 1 104 0
 543 0008 181C     		mov	r0, r3
 544 000a BD46     		mov	sp, r7
 545              		@ sp needed
 546 000c 80BD     		pop	{r7, pc}
 547              	.L22:
 548 000e C046     		.align	2
 549              	.L21:
 550 0010 00000000 		.word	led_pattern
 551              		.cfi_endproc
 552              	.LFE41:
 553              		.size	LED_get_current_pattern, .-LED_get_current_pattern
 554              		.section	.text.LED_toggle_and_dark,"ax",%progbits
 555              		.align	2
 556              		.global	LED_toggle_and_dark
 557              		.code	16
 558              		.thumb_func
 559              		.type	LED_toggle_and_dark, %function
 560              	LED_toggle_and_dark:
 561              	.LFB42:
 105:.\LED.c       **** 
 106:.\LED.c       **** // Toggle LEDs
 107:.\LED.c       **** void LED_toggle_and_dark(void) {
 562              		.loc 1 107 0
 563              		.cfi_startproc
 564 0000 80B5     		push	{r7, lr}
 565              		.cfi_def_cfa_offset 8
 566              		.cfi_offset 7, -8
 567              		.cfi_offset 14, -4
 568 0002 00AF     		add	r7, sp, #0
 569              		.cfi_def_cfa_register 7
 108:.\LED.c       ****     if (led_pattern == 0) {
 570              		.loc 1 108 0
 571 0004 164B     		ldr	r3, .L27
 572 0006 1B78     		ldrb	r3, [r3]
ARM GAS  C:\Users\humon\AppData\Local\Temp\ccSIv7pe.s 			page 13


 573 0008 002B     		cmp	r3, #0
 574 000a 0BD1     		bne	.L24
 109:.\LED.c       ****         LED_set_state(LED1, ON);
 575              		.loc 1 109 0
 576 000c 0020     		mov	r0, #0
 577 000e 0121     		mov	r1, #1
 578 0010 FFF7FEFF 		bl	LED_set_state
 110:.\LED.c       ****         LED_set_state(LED2, OFF);
 579              		.loc 1 110 0
 580 0014 0120     		mov	r0, #1
 581 0016 0021     		mov	r1, #0
 582 0018 FFF7FEFF 		bl	LED_set_state
 111:.\LED.c       ****         
 112:.\LED.c       ****         led_pattern = 1;
 583              		.loc 1 112 0
 584 001c 104B     		ldr	r3, .L27
 585 001e 0122     		mov	r2, #1
 586 0020 1A70     		strb	r2, [r3]
 587 0022 1AE0     		b	.L23
 588              	.L24:
 113:.\LED.c       ****     } else if (led_pattern == 1) {
 589              		.loc 1 113 0
 590 0024 0E4B     		ldr	r3, .L27
 591 0026 1B78     		ldrb	r3, [r3]
 592 0028 012B     		cmp	r3, #1
 593 002a 0BD1     		bne	.L26
 114:.\LED.c       ****         LED_set_state(LED1, OFF);
 594              		.loc 1 114 0
 595 002c 0020     		mov	r0, #0
 596 002e 0021     		mov	r1, #0
 597 0030 FFF7FEFF 		bl	LED_set_state
 115:.\LED.c       ****         LED_set_state(LED2, ON);
 598              		.loc 1 115 0
 599 0034 0120     		mov	r0, #1
 600 0036 0121     		mov	r1, #1
 601 0038 FFF7FEFF 		bl	LED_set_state
 116:.\LED.c       ****         
 117:.\LED.c       ****         led_pattern = 2;
 602              		.loc 1 117 0
 603 003c 084B     		ldr	r3, .L27
 604 003e 0222     		mov	r2, #2
 605 0040 1A70     		strb	r2, [r3]
 606 0042 0AE0     		b	.L23
 607              	.L26:
 118:.\LED.c       ****       } else {
 119:.\LED.c       ****         LED_set_state(LED1, OFF);
 608              		.loc 1 119 0
 609 0044 0020     		mov	r0, #0
 610 0046 0021     		mov	r1, #0
 611 0048 FFF7FEFF 		bl	LED_set_state
 120:.\LED.c       ****         LED_set_state(LED2, OFF);
 612              		.loc 1 120 0
 613 004c 0120     		mov	r0, #1
 614 004e 0021     		mov	r1, #0
 615 0050 FFF7FEFF 		bl	LED_set_state
 121:.\LED.c       ****         
 122:.\LED.c       ****         led_pattern = 0;
ARM GAS  C:\Users\humon\AppData\Local\Temp\ccSIv7pe.s 			page 14


 616              		.loc 1 122 0
 617 0054 024B     		ldr	r3, .L27
 618 0056 0022     		mov	r2, #0
 619 0058 1A70     		strb	r2, [r3]
 620              	.L23:
 123:.\LED.c       ****       }
 124:.\LED.c       **** }
 621              		.loc 1 124 0
 622 005a BD46     		mov	sp, r7
 623              		@ sp needed
 624 005c 80BD     		pop	{r7, pc}
 625              	.L28:
 626 005e C046     		.align	2
 627              	.L27:
 628 0060 00000000 		.word	led_pattern
 629              		.cfi_endproc
 630              	.LFE42:
 631              		.size	LED_toggle_and_dark, .-LED_toggle_and_dark
 632              		.section	.text.LED_set_state,"ax",%progbits
 633              		.align	2
 634              		.global	LED_set_state
 635              		.code	16
 636              		.thumb_func
 637              		.type	LED_set_state, %function
 638              	LED_set_state:
 639              	.LFB43:
 125:.\LED.c       **** 
 126:.\LED.c       **** // Sets LED state
 127:.\LED.c       **** /*
 128:.\LED.c       **** * NB: We set the state twice because there are two pins that are
 129:.\LED.c       **** * "jumpered". In the cmd buffer, that we are writing to the LED slave
 130:.\LED.c       **** * address using I2C, we do not use the next address because the LED
 131:.\LED.c       **** * driver auto-increments this address.
 132:.\LED.c       **** */
 133:.\LED.c       **** void LED_set_state(uint8 led_num, uint8 led_state) {
 640              		.loc 1 133 0
 641              		.cfi_startproc
 642 0000 80B5     		push	{r7, lr}
 643              		.cfi_def_cfa_offset 8
 644              		.cfi_offset 7, -8
 645              		.cfi_offset 14, -4
 646 0002 84B0     		sub	sp, sp, #16
 647              		.cfi_def_cfa_offset 24
 648 0004 00AF     		add	r7, sp, #0
 649              		.cfi_def_cfa_register 7
 650 0006 021C     		mov	r2, r0
 651 0008 FB1D     		add	r3, r7, #7
 652 000a 1A70     		strb	r2, [r3]
 653 000c BB1D     		add	r3, r7, #6
 654 000e 0A1C     		add	r2, r1, #0
 655 0010 1A70     		strb	r2, [r3]
 134:.\LED.c       ****     uint8 cmd[3];
 135:.\LED.c       ****     cmd[0] = led_array[led_num].led_reg;
 656              		.loc 1 135 0
 657 0012 FB1D     		add	r3, r7, #7
 658 0014 1A78     		ldrb	r2, [r3]
 659 0016 1549     		ldr	r1, .L30
ARM GAS  C:\Users\humon\AppData\Local\Temp\ccSIv7pe.s 			page 15


 660 0018 131C     		mov	r3, r2
 661 001a 9B00     		lsl	r3, r3, #2
 662 001c 9B18     		add	r3, r3, r2
 663 001e 9B00     		lsl	r3, r3, #2
 664 0020 CB18     		add	r3, r1, r3
 665 0022 0833     		add	r3, r3, #8
 666 0024 9A78     		ldrb	r2, [r3, #2]
 667 0026 0C23     		mov	r3, #12
 668 0028 FB18     		add	r3, r7, r3
 669 002a 1A70     		strb	r2, [r3]
 136:.\LED.c       ****     cmd[1] = led_state;
 670              		.loc 1 136 0
 671 002c 0C23     		mov	r3, #12
 672 002e FB18     		add	r3, r7, r3
 673 0030 BA1D     		add	r2, r7, #6
 674 0032 1278     		ldrb	r2, [r2]
 675 0034 5A70     		strb	r2, [r3, #1]
 137:.\LED.c       ****     cmd[2] = led_state;
 676              		.loc 1 137 0
 677 0036 0C23     		mov	r3, #12
 678 0038 FB18     		add	r3, r7, r3
 679 003a BA1D     		add	r2, r7, #6
 680 003c 1278     		ldrb	r2, [r2]
 681 003e 9A70     		strb	r2, [r3, #2]
 138:.\LED.c       ****     
 139:.\LED.c       ****     I2C_write(LED_SLAVE_ADDRESS, cmd, 3);
 682              		.loc 1 139 0
 683 0040 0C23     		mov	r3, #12
 684 0042 FB18     		add	r3, r7, r3
 685 0044 4420     		mov	r0, #68
 686 0046 191C     		mov	r1, r3
 687 0048 0322     		mov	r2, #3
 688 004a FFF7FEFF 		bl	I2C_write
 140:.\LED.c       ****     led_array[led_num].led_state = led_state;
 689              		.loc 1 140 0
 690 004e FB1D     		add	r3, r7, #7
 691 0050 1A78     		ldrb	r2, [r3]
 692 0052 0649     		ldr	r1, .L30
 693 0054 131C     		mov	r3, r2
 694 0056 9B00     		lsl	r3, r3, #2
 695 0058 9B18     		add	r3, r3, r2
 696 005a 9B00     		lsl	r3, r3, #2
 697 005c CB18     		add	r3, r1, r3
 698 005e 0833     		add	r3, r3, #8
 699 0060 BA1D     		add	r2, r7, #6
 700 0062 1278     		ldrb	r2, [r2]
 701 0064 DA71     		strb	r2, [r3, #7]
 141:.\LED.c       **** }
 702              		.loc 1 141 0
 703 0066 BD46     		mov	sp, r7
 704 0068 04B0     		add	sp, sp, #16
 705              		@ sp needed
 706 006a 80BD     		pop	{r7, pc}
 707              	.L31:
 708              		.align	2
 709              	.L30:
 710 006c 00000000 		.word	led_array
ARM GAS  C:\Users\humon\AppData\Local\Temp\ccSIv7pe.s 			page 16


 711              		.cfi_endproc
 712              	.LFE43:
 713              		.size	LED_set_state, .-LED_set_state
 714              		.section	.rodata
 715              		.align	2
 716              	.LC8:
 717 0000 3636306E 		.ascii	"660nm\000"
 717      6D00
 718 0006 0000     		.align	2
 719              	.LC10:
 720 0008 3835356E 		.ascii	"855nm\000"
 720      6D00
 721 000e 0000     		.align	2
 722              	.LC13:
 723 0010 72656400 		.ascii	"red\000"
 724              		.align	2
 725              	.LC15:
 726 0014 67726565 		.ascii	"green\000"
 726      6E00
 727 001a 0000     		.section	.text.LED_init_params,"ax",%progbits
 728              		.align	2
 729              		.global	LED_init_params
 730              		.code	16
 731              		.thumb_func
 732              		.type	LED_init_params, %function
 733              	LED_init_params:
 734              	.LFB44:
 142:.\LED.c       **** 
 143:.\LED.c       **** // Setup Addresses
 144:.\LED.c       **** // Initialize all LEDs
 145:.\LED.c       **** bool LED_init_params( void ) {
 735              		.loc 1 145 0
 736              		.cfi_startproc
 737 0000 80B5     		push	{r7, lr}
 738              		.cfi_def_cfa_offset 8
 739              		.cfi_offset 7, -8
 740              		.cfi_offset 14, -4
 741 0002 00AF     		add	r7, sp, #0
 742              		.cfi_def_cfa_register 7
 146:.\LED.c       ****   // LED1
 147:.\LED.c       ****   led_array[LED1].led_num = LED1;
 743              		.loc 1 147 0
 744 0004 514B     		ldr	r3, .L34
 745 0006 0022     		mov	r2, #0
 746 0008 1A70     		strb	r2, [r3]
 148:.\LED.c       ****   led_array[LED1].led_name = LED1_NAME;
 747              		.loc 1 148 0
 748 000a 504B     		ldr	r3, .L34
 749 000c 504A     		ldr	r2, .L34+4
 750 000e 5A60     		str	r2, [r3, #4]
 149:.\LED.c       ****   led_array[LED1].port_num = 14;
 751              		.loc 1 149 0
 752 0010 4E4B     		ldr	r3, .L34
 753 0012 0E22     		mov	r2, #14
 754 0014 5A72     		strb	r2, [r3, #9]
 150:.\LED.c       ****   led_array[LED1].led_reg = P14_REG;
 755              		.loc 1 150 0
ARM GAS  C:\Users\humon\AppData\Local\Temp\ccSIv7pe.s 			page 17


 756 0016 4D4B     		ldr	r3, .L34
 757 0018 2E22     		mov	r2, #46
 758 001a 9A72     		strb	r2, [r3, #10]
 151:.\LED.c       ****   led_array[LED1].current_reg = P14_CURR_REG;
 759              		.loc 1 151 0
 760 001c 4B4B     		ldr	r3, .L34
 761 001e 1722     		mov	r2, #23
 762 0020 1A73     		strb	r2, [r3, #12]
 152:.\LED.c       ****   led_array[LED1].current_digit = 0x11;
 763              		.loc 1 152 0
 764 0022 4A4B     		ldr	r3, .L34
 765 0024 1122     		mov	r2, #17
 766 0026 5A73     		strb	r2, [r3, #13]
 153:.\LED.c       ****   led_array[LED1].brightness = 0x00;
 767              		.loc 1 153 0
 768 0028 484B     		ldr	r3, .L34
 769 002a 0022     		mov	r2, #0
 770 002c 9A73     		strb	r2, [r3, #14]
 154:.\LED.c       ****   led_array[LED1].led_state = OFF;
 771              		.loc 1 154 0
 772 002e 474B     		ldr	r3, .L34
 773 0030 0022     		mov	r2, #0
 774 0032 DA73     		strb	r2, [r3, #15]
 155:.\LED.c       ****   led_array[LED1].on_time = 100;
 775              		.loc 1 155 0
 776 0034 454B     		ldr	r3, .L34
 777 0036 6422     		mov	r2, #100
 778 0038 1A82     		strh	r2, [r3, #16]
 156:.\LED.c       **** 
 157:.\LED.c       ****   // LED2
 158:.\LED.c       ****   led_array[LED2].led_num = LED2;
 779              		.loc 1 158 0
 780 003a 444B     		ldr	r3, .L34
 781 003c 0122     		mov	r2, #1
 782 003e 1A75     		strb	r2, [r3, #20]
 159:.\LED.c       ****   led_array[LED2].led_name = LED2_NAME;
 783              		.loc 1 159 0
 784 0040 424B     		ldr	r3, .L34
 785 0042 444A     		ldr	r2, .L34+8
 786 0044 9A61     		str	r2, [r3, #24]
 160:.\LED.c       ****   led_array[LED2].port_num = 12;
 787              		.loc 1 160 0
 788 0046 414B     		ldr	r3, .L34
 789 0048 0C22     		mov	r2, #12
 790 004a 5A77     		strb	r2, [r3, #29]
 161:.\LED.c       ****   led_array[LED2].led_reg = P12_REG;
 791              		.loc 1 161 0
 792 004c 3F4B     		ldr	r3, .L34
 793 004e 2C22     		mov	r2, #44
 794 0050 9A77     		strb	r2, [r3, #30]
 162:.\LED.c       ****   led_array[LED2].current_reg = P12_CURR_REG;
 795              		.loc 1 162 0
 796 0052 3E4B     		ldr	r3, .L34
 797 0054 2022     		mov	r2, #32
 798 0056 1621     		mov	r1, #22
 799 0058 9954     		strb	r1, [r3, r2]
 163:.\LED.c       ****   led_array[LED2].current_digit = 0x11;
ARM GAS  C:\Users\humon\AppData\Local\Temp\ccSIv7pe.s 			page 18


 800              		.loc 1 163 0
 801 005a 3C4B     		ldr	r3, .L34
 802 005c 2122     		mov	r2, #33
 803 005e 1121     		mov	r1, #17
 804 0060 9954     		strb	r1, [r3, r2]
 164:.\LED.c       ****   led_array[LED2].brightness = 0x00;
 805              		.loc 1 164 0
 806 0062 3A4B     		ldr	r3, .L34
 807 0064 2222     		mov	r2, #34
 808 0066 0021     		mov	r1, #0
 809 0068 9954     		strb	r1, [r3, r2]
 165:.\LED.c       ****   led_array[LED2].led_state = OFF;
 810              		.loc 1 165 0
 811 006a 384B     		ldr	r3, .L34
 812 006c 2322     		mov	r2, #35
 813 006e 0021     		mov	r1, #0
 814 0070 9954     		strb	r1, [r3, r2]
 166:.\LED.c       ****   led_array[LED2].on_time = 100;
 815              		.loc 1 166 0
 816 0072 364B     		ldr	r3, .L34
 817 0074 6422     		mov	r2, #100
 818 0076 9A84     		strh	r2, [r3, #36]
 167:.\LED.c       **** 
 168:.\LED.c       ****   // Red LED
 169:.\LED.c       ****   RGB_led_array[RED_LED].led_num = RED_LED;
 819              		.loc 1 169 0
 820 0078 374B     		ldr	r3, .L34+12
 821 007a 0022     		mov	r2, #0
 822 007c 1A70     		strb	r2, [r3]
 170:.\LED.c       ****   RGB_led_array[RED_LED].led_num_pair = 0;
 823              		.loc 1 170 0
 824 007e 364B     		ldr	r3, .L34+12
 825 0080 0022     		mov	r2, #0
 826 0082 5A70     		strb	r2, [r3, #1]
 171:.\LED.c       ****   RGB_led_array[RED_LED].led_name = RED_LED_NAME;
 827              		.loc 1 171 0
 828 0084 344B     		ldr	r3, .L34+12
 829 0086 354A     		ldr	r2, .L34+16
 830 0088 5A60     		str	r2, [r3, #4]
 172:.\LED.c       ****   RGB_led_array[RED_LED].port_num = 18;
 831              		.loc 1 172 0
 832 008a 334B     		ldr	r3, .L34+12
 833 008c 1222     		mov	r2, #18
 834 008e 5A72     		strb	r2, [r3, #9]
 173:.\LED.c       ****   RGB_led_array[RED_LED].led_reg = P18_REG;
 835              		.loc 1 173 0
 836 0090 314B     		ldr	r3, .L34+12
 837 0092 3222     		mov	r2, #50
 838 0094 9A72     		strb	r2, [r3, #10]
 174:.\LED.c       ****   RGB_led_array[RED_LED].current_reg = P18_CURR_REG;
 839              		.loc 1 174 0
 840 0096 304B     		ldr	r3, .L34+12
 841 0098 1922     		mov	r2, #25
 842 009a 1A73     		strb	r2, [r3, #12]
 175:.\LED.c       ****   RGB_led_array[RED_LED].current_digit = 0x01;
 843              		.loc 1 175 0
 844 009c 2E4B     		ldr	r3, .L34+12
ARM GAS  C:\Users\humon\AppData\Local\Temp\ccSIv7pe.s 			page 19


 845 009e 0122     		mov	r2, #1
 846 00a0 5A73     		strb	r2, [r3, #13]
 176:.\LED.c       ****   RGB_led_array[RED_LED].brightness = 0x00;
 847              		.loc 1 176 0
 848 00a2 2D4B     		ldr	r3, .L34+12
 849 00a4 0022     		mov	r2, #0
 850 00a6 9A73     		strb	r2, [r3, #14]
 177:.\LED.c       ****   RGB_led_array[RED_LED].led_state = OFF;
 851              		.loc 1 177 0
 852 00a8 2B4B     		ldr	r3, .L34+12
 853 00aa 0022     		mov	r2, #0
 854 00ac DA73     		strb	r2, [r3, #15]
 178:.\LED.c       ****   RGB_led_array[RED_LED].on_time = 100;
 855              		.loc 1 178 0
 856 00ae 2A4B     		ldr	r3, .L34+12
 857 00b0 6422     		mov	r2, #100
 858 00b2 1A82     		strh	r2, [r3, #16]
 179:.\LED.c       **** 
 180:.\LED.c       ****   // Green LED
 181:.\LED.c       ****   RGB_led_array[GREEN_LED].led_num = GREEN_LED;
 859              		.loc 1 181 0
 860 00b4 284B     		ldr	r3, .L34+12
 861 00b6 0122     		mov	r2, #1
 862 00b8 1A75     		strb	r2, [r3, #20]
 182:.\LED.c       ****   RGB_led_array[GREEN_LED].led_num_pair = BLUE_LED;
 863              		.loc 1 182 0
 864 00ba 274B     		ldr	r3, .L34+12
 865 00bc 0222     		mov	r2, #2
 866 00be 5A75     		strb	r2, [r3, #21]
 183:.\LED.c       ****   RGB_led_array[GREEN_LED].led_name = GREEN_LED_NAME;
 867              		.loc 1 183 0
 868 00c0 254B     		ldr	r3, .L34+12
 869 00c2 274A     		ldr	r2, .L34+20
 870 00c4 9A61     		str	r2, [r3, #24]
 184:.\LED.c       ****   RGB_led_array[GREEN_LED].port_num = 19;
 871              		.loc 1 184 0
 872 00c6 244B     		ldr	r3, .L34+12
 873 00c8 1322     		mov	r2, #19
 874 00ca 5A77     		strb	r2, [r3, #29]
 185:.\LED.c       ****   RGB_led_array[GREEN_LED].led_reg = P19_REG;
 875              		.loc 1 185 0
 876 00cc 224B     		ldr	r3, .L34+12
 877 00ce 3322     		mov	r2, #51
 878 00d0 9A77     		strb	r2, [r3, #30]
 186:.\LED.c       ****   RGB_led_array[GREEN_LED].current_reg = P19_CURR_REG;
 879              		.loc 1 186 0
 880 00d2 214B     		ldr	r3, .L34+12
 881 00d4 2022     		mov	r2, #32
 882 00d6 1921     		mov	r1, #25
 883 00d8 9954     		strb	r1, [r3, r2]
 187:.\LED.c       ****   RGB_led_array[GREEN_LED].current_digit = 0x10;
 884              		.loc 1 187 0
 885 00da 1F4B     		ldr	r3, .L34+12
 886 00dc 2122     		mov	r2, #33
 887 00de 1021     		mov	r1, #16
 888 00e0 9954     		strb	r1, [r3, r2]
 188:.\LED.c       ****   RGB_led_array[GREEN_LED].brightness = 0x00;
ARM GAS  C:\Users\humon\AppData\Local\Temp\ccSIv7pe.s 			page 20


 889              		.loc 1 188 0
 890 00e2 1D4B     		ldr	r3, .L34+12
 891 00e4 2222     		mov	r2, #34
 892 00e6 0021     		mov	r1, #0
 893 00e8 9954     		strb	r1, [r3, r2]
 189:.\LED.c       ****   RGB_led_array[GREEN_LED].led_state = OFF;
 894              		.loc 1 189 0
 895 00ea 1B4B     		ldr	r3, .L34+12
 896 00ec 2322     		mov	r2, #35
 897 00ee 0021     		mov	r1, #0
 898 00f0 9954     		strb	r1, [r3, r2]
 190:.\LED.c       ****   RGB_led_array[GREEN_LED].on_time = 100;
 899              		.loc 1 190 0
 900 00f2 194B     		ldr	r3, .L34+12
 901 00f4 6422     		mov	r2, #100
 902 00f6 9A84     		strh	r2, [r3, #36]
 191:.\LED.c       **** 
 192:.\LED.c       ****   // Blue LED
 193:.\LED.c       ****   RGB_led_array[BLUE_LED].led_num = BLUE_LED;
 903              		.loc 1 193 0
 904 00f8 174B     		ldr	r3, .L34+12
 905 00fa 2822     		mov	r2, #40
 906 00fc 0221     		mov	r1, #2
 907 00fe 9954     		strb	r1, [r3, r2]
 194:.\LED.c       ****   RGB_led_array[BLUE_LED].led_num_pair = GREEN_LED;
 908              		.loc 1 194 0
 909 0100 154B     		ldr	r3, .L34+12
 910 0102 2922     		mov	r2, #41
 911 0104 0121     		mov	r1, #1
 912 0106 9954     		strb	r1, [r3, r2]
 195:.\LED.c       ****   RGB_led_array[BLUE_LED].led_name = GREEN_LED_NAME;
 913              		.loc 1 195 0
 914 0108 134B     		ldr	r3, .L34+12
 915 010a 154A     		ldr	r2, .L34+20
 916 010c DA62     		str	r2, [r3, #44]
 196:.\LED.c       ****   RGB_led_array[BLUE_LED].port_num = 20;
 917              		.loc 1 196 0
 918 010e 124B     		ldr	r3, .L34+12
 919 0110 3122     		mov	r2, #49
 920 0112 1421     		mov	r1, #20
 921 0114 9954     		strb	r1, [r3, r2]
 197:.\LED.c       ****   RGB_led_array[BLUE_LED].led_reg = P20_REG;
 922              		.loc 1 197 0
 923 0116 104B     		ldr	r3, .L34+12
 924 0118 3222     		mov	r2, #50
 925 011a 3421     		mov	r1, #52
 926 011c 9954     		strb	r1, [r3, r2]
 198:.\LED.c       ****   RGB_led_array[BLUE_LED].current_reg = P20_CURR_REG;
 927              		.loc 1 198 0
 928 011e 0E4B     		ldr	r3, .L34+12
 929 0120 3422     		mov	r2, #52
 930 0122 1A21     		mov	r1, #26
 931 0124 9954     		strb	r1, [r3, r2]
 199:.\LED.c       ****   RGB_led_array[BLUE_LED].current_digit = 0x01;
 932              		.loc 1 199 0
 933 0126 0C4B     		ldr	r3, .L34+12
 934 0128 3522     		mov	r2, #53
ARM GAS  C:\Users\humon\AppData\Local\Temp\ccSIv7pe.s 			page 21


 935 012a 0121     		mov	r1, #1
 936 012c 9954     		strb	r1, [r3, r2]
 200:.\LED.c       ****   RGB_led_array[BLUE_LED].brightness = 0x00;
 937              		.loc 1 200 0
 938 012e 0A4B     		ldr	r3, .L34+12
 939 0130 3622     		mov	r2, #54
 940 0132 0021     		mov	r1, #0
 941 0134 9954     		strb	r1, [r3, r2]
 201:.\LED.c       ****   RGB_led_array[BLUE_LED].led_state = OFF;
 942              		.loc 1 201 0
 943 0136 084B     		ldr	r3, .L34+12
 944 0138 3722     		mov	r2, #55
 945 013a 0021     		mov	r1, #0
 946 013c 9954     		strb	r1, [r3, r2]
 202:.\LED.c       ****   RGB_led_array[BLUE_LED].on_time = 100;
 947              		.loc 1 202 0
 948 013e 064B     		ldr	r3, .L34+12
 949 0140 6422     		mov	r2, #100
 950 0142 1A87     		strh	r2, [r3, #56]
 203:.\LED.c       **** 
 204:.\LED.c       ****   return true;
 951              		.loc 1 204 0
 952 0144 0123     		mov	r3, #1
 205:.\LED.c       **** };
 953              		.loc 1 205 0
 954 0146 181C     		mov	r0, r3
 955 0148 BD46     		mov	sp, r7
 956              		@ sp needed
 957 014a 80BD     		pop	{r7, pc}
 958              	.L35:
 959              		.align	2
 960              	.L34:
 961 014c 00000000 		.word	led_array
 962 0150 00000000 		.word	.LC8
 963 0154 08000000 		.word	.LC10
 964 0158 00000000 		.word	RGB_led_array
 965 015c 10000000 		.word	.LC13
 966 0160 14000000 		.word	.LC15
 967              		.cfi_endproc
 968              	.LFE44:
 969              		.size	LED_init_params, .-LED_init_params
 970              		.section	.text.LED_all_off,"ax",%progbits
 971              		.align	2
 972              		.global	LED_all_off
 973              		.code	16
 974              		.thumb_func
 975              		.type	LED_all_off, %function
 976              	LED_all_off:
 977              	.LFB45:
 206:.\LED.c       **** 
 207:.\LED.c       **** void LED_all_off( void ) {
 978              		.loc 1 207 0
 979              		.cfi_startproc
 980 0000 80B5     		push	{r7, lr}
 981              		.cfi_def_cfa_offset 8
 982              		.cfi_offset 7, -8
 983              		.cfi_offset 14, -4
ARM GAS  C:\Users\humon\AppData\Local\Temp\ccSIv7pe.s 			page 22


 984 0002 00AF     		add	r7, sp, #0
 985              		.cfi_def_cfa_register 7
 208:.\LED.c       ****     LED_RGB_set_state(RED_LED, OFF);
 986              		.loc 1 208 0
 987 0004 0020     		mov	r0, #0
 988 0006 0021     		mov	r1, #0
 989 0008 FFF7FEFF 		bl	LED_RGB_set_state
 209:.\LED.c       ****     LED_RGB_set_state(GREEN_LED, OFF);
 990              		.loc 1 209 0
 991 000c 0120     		mov	r0, #1
 992 000e 0021     		mov	r1, #0
 993 0010 FFF7FEFF 		bl	LED_RGB_set_state
 210:.\LED.c       ****     LED_RGB_set_state(BLUE_LED, OFF);
 994              		.loc 1 210 0
 995 0014 0220     		mov	r0, #2
 996 0016 0021     		mov	r1, #0
 997 0018 FFF7FEFF 		bl	LED_RGB_set_state
 211:.\LED.c       ****     LED_set_state(LED1, OFF);
 998              		.loc 1 211 0
 999 001c 0020     		mov	r0, #0
 1000 001e 0021     		mov	r1, #0
 1001 0020 FFF7FEFF 		bl	LED_set_state
 212:.\LED.c       ****     LED_set_state(LED2, OFF);
 1002              		.loc 1 212 0
 1003 0024 0120     		mov	r0, #1
 1004 0026 0021     		mov	r1, #0
 1005 0028 FFF7FEFF 		bl	LED_set_state
 213:.\LED.c       **** }
 1006              		.loc 1 213 0
 1007 002c BD46     		mov	sp, r7
 1008              		@ sp needed
 1009 002e 80BD     		pop	{r7, pc}
 1010              		.cfi_endproc
 1011              	.LFE45:
 1012              		.size	LED_all_off, .-LED_all_off
 1013              		.text
 1014              	.Letext0:
 1015              		.file 2 "Generated_Source\\PSoC4/cytypes.h"
 1016              		.file 3 "Generated_Source\\PSoC4/BLE_Stack.h"
 1017              		.file 4 "./I2C.h"
 1018              		.file 5 "./LED.h"